ARM GAS  /tmp/cc8W75dr.s 			page 1


   1              		.cpu cortex-m4
   2              		.arch armv7e-m
   3              		.fpu fpv4-sp-d16
   4              		.eabi_attribute 27, 1
   5              		.eabi_attribute 28, 1
   6              		.eabi_attribute 20, 1
   7              		.eabi_attribute 21, 1
   8              		.eabi_attribute 23, 3
   9              		.eabi_attribute 24, 1
  10              		.eabi_attribute 25, 1
  11              		.eabi_attribute 26, 1
  12              		.eabi_attribute 30, 1
  13              		.eabi_attribute 34, 1
  14              		.eabi_attribute 18, 4
  15              		.file	"bluenrg_gatt_aci.c"
  16              		.text
  17              	.Ltext0:
  18              		.cfi_sections	.debug_frame
  19              		.file 1 "Middlewares/ST/BlueNRG-MS/hci/controller/bluenrg_gatt_aci.c"
  20              		.section	.text.aci_gatt_init,"ax",%progbits
  21              		.align	1
  22              		.global	aci_gatt_init
  23              		.syntax unified
  24              		.thumb
  25              		.thumb_func
  27              	aci_gatt_init:
  28              	.LFB292:
   1:Middlewares/ST/BlueNRG-MS/hci/controller/bluenrg_gatt_aci.c **** /**
   2:Middlewares/ST/BlueNRG-MS/hci/controller/bluenrg_gatt_aci.c ****   ******************************************************************************
   3:Middlewares/ST/BlueNRG-MS/hci/controller/bluenrg_gatt_aci.c ****   * @file    bluenrg_gatt_aci.c
   4:Middlewares/ST/BlueNRG-MS/hci/controller/bluenrg_gatt_aci.c ****   * @author  AMS - AAS
   5:Middlewares/ST/BlueNRG-MS/hci/controller/bluenrg_gatt_aci.c ****   * @brief   File with GATT commands for BlueNRG FW6.3
   6:Middlewares/ST/BlueNRG-MS/hci/controller/bluenrg_gatt_aci.c ****   ******************************************************************************
   7:Middlewares/ST/BlueNRG-MS/hci/controller/bluenrg_gatt_aci.c ****   * @attention
   8:Middlewares/ST/BlueNRG-MS/hci/controller/bluenrg_gatt_aci.c ****   *
   9:Middlewares/ST/BlueNRG-MS/hci/controller/bluenrg_gatt_aci.c ****   * Copyright (c) 2013 STMicroelectronics.
  10:Middlewares/ST/BlueNRG-MS/hci/controller/bluenrg_gatt_aci.c ****   * All rights reserved.
  11:Middlewares/ST/BlueNRG-MS/hci/controller/bluenrg_gatt_aci.c ****   *
  12:Middlewares/ST/BlueNRG-MS/hci/controller/bluenrg_gatt_aci.c ****   * This software is licensed under terms that can be found in the LICENSE file
  13:Middlewares/ST/BlueNRG-MS/hci/controller/bluenrg_gatt_aci.c ****   * in the root directory of this software component.
  14:Middlewares/ST/BlueNRG-MS/hci/controller/bluenrg_gatt_aci.c ****   * If no LICENSE file comes with this software, it is provided AS-IS.
  15:Middlewares/ST/BlueNRG-MS/hci/controller/bluenrg_gatt_aci.c ****   *
  16:Middlewares/ST/BlueNRG-MS/hci/controller/bluenrg_gatt_aci.c ****   ******************************************************************************
  17:Middlewares/ST/BlueNRG-MS/hci/controller/bluenrg_gatt_aci.c ****   */
  18:Middlewares/ST/BlueNRG-MS/hci/controller/bluenrg_gatt_aci.c **** #include "bluenrg_types.h"
  19:Middlewares/ST/BlueNRG-MS/hci/controller/bluenrg_gatt_aci.c **** #include "bluenrg_def.h"
  20:Middlewares/ST/BlueNRG-MS/hci/controller/bluenrg_gatt_aci.c **** #include "hci_const.h"
  21:Middlewares/ST/BlueNRG-MS/hci/controller/bluenrg_gatt_aci.c **** #include "bluenrg_aci_const.h"
  22:Middlewares/ST/BlueNRG-MS/hci/controller/bluenrg_gatt_aci.c **** #include "bluenrg_gatt_aci.h"
  23:Middlewares/ST/BlueNRG-MS/hci/controller/bluenrg_gatt_aci.c **** #include "bluenrg_gatt_server.h"
  24:Middlewares/ST/BlueNRG-MS/hci/controller/bluenrg_gatt_aci.c **** #include "bluenrg_gap.h"
  25:Middlewares/ST/BlueNRG-MS/hci/controller/bluenrg_gatt_aci.c **** 
  26:Middlewares/ST/BlueNRG-MS/hci/controller/bluenrg_gatt_aci.c **** #define MIN(a,b)            ((a) < (b) )? (a) : (b)
  27:Middlewares/ST/BlueNRG-MS/hci/controller/bluenrg_gatt_aci.c **** #define MAX(a,b)            ((a) > (b) )? (a) : (b)
  28:Middlewares/ST/BlueNRG-MS/hci/controller/bluenrg_gatt_aci.c **** 
  29:Middlewares/ST/BlueNRG-MS/hci/controller/bluenrg_gatt_aci.c **** 
  30:Middlewares/ST/BlueNRG-MS/hci/controller/bluenrg_gatt_aci.c **** tBleStatus aci_gatt_init(void)
ARM GAS  /tmp/cc8W75dr.s 			page 2


  31:Middlewares/ST/BlueNRG-MS/hci/controller/bluenrg_gatt_aci.c **** {
  29              		.loc 1 31 1 view -0
  30              		.cfi_startproc
  31              		@ args = 0, pretend = 0, frame = 32
  32              		@ frame_needed = 0, uses_anonymous_args = 0
  33 0000 00B5     		push	{lr}
  34              	.LCFI0:
  35              		.cfi_def_cfa_offset 4
  36              		.cfi_offset 14, -4
  37 0002 89B0     		sub	sp, sp, #36
  38              	.LCFI1:
  39              		.cfi_def_cfa_offset 40
  32:Middlewares/ST/BlueNRG-MS/hci/controller/bluenrg_gatt_aci.c ****   struct hci_request rq;
  40              		.loc 1 32 3 view .LVU1
  33:Middlewares/ST/BlueNRG-MS/hci/controller/bluenrg_gatt_aci.c ****   uint8_t status;
  41              		.loc 1 33 3 view .LVU2
  34:Middlewares/ST/BlueNRG-MS/hci/controller/bluenrg_gatt_aci.c **** 
  35:Middlewares/ST/BlueNRG-MS/hci/controller/bluenrg_gatt_aci.c ****   BLUENRG_memset(&rq, 0, sizeof(rq));
  42              		.loc 1 35 3 view .LVU3
  43 0004 0021     		movs	r1, #0
  44 0006 0291     		str	r1, [sp, #8]
  45 0008 0391     		str	r1, [sp, #12]
  46 000a 0491     		str	r1, [sp, #16]
  47 000c 0591     		str	r1, [sp, #20]
  48 000e 0691     		str	r1, [sp, #24]
  49 0010 0791     		str	r1, [sp, #28]
  36:Middlewares/ST/BlueNRG-MS/hci/controller/bluenrg_gatt_aci.c ****   rq.ogf = OGF_VENDOR_CMD;
  50              		.loc 1 36 3 view .LVU4
  51              		.loc 1 36 10 is_stmt 0 view .LVU5
  52 0012 3F23     		movs	r3, #63
  53 0014 ADF80830 		strh	r3, [sp, #8]	@ movhi
  37:Middlewares/ST/BlueNRG-MS/hci/controller/bluenrg_gatt_aci.c ****   rq.ocf = OCF_GATT_INIT;
  54              		.loc 1 37 3 is_stmt 1 view .LVU6
  55              		.loc 1 37 10 is_stmt 0 view .LVU7
  56 0018 40F20113 		movw	r3, #257
  57 001c ADF80A30 		strh	r3, [sp, #10]	@ movhi
  38:Middlewares/ST/BlueNRG-MS/hci/controller/bluenrg_gatt_aci.c ****   rq.rparam = &status;
  58              		.loc 1 38 3 is_stmt 1 view .LVU8
  59              		.loc 1 38 13 is_stmt 0 view .LVU9
  60 0020 0DF10703 		add	r3, sp, #7
  61 0024 0693     		str	r3, [sp, #24]
  39:Middlewares/ST/BlueNRG-MS/hci/controller/bluenrg_gatt_aci.c ****   rq.rlen = 1;
  62              		.loc 1 39 3 is_stmt 1 view .LVU10
  63              		.loc 1 39 11 is_stmt 0 view .LVU11
  64 0026 0123     		movs	r3, #1
  65 0028 0793     		str	r3, [sp, #28]
  40:Middlewares/ST/BlueNRG-MS/hci/controller/bluenrg_gatt_aci.c **** 
  41:Middlewares/ST/BlueNRG-MS/hci/controller/bluenrg_gatt_aci.c ****   if (hci_send_req(&rq, FALSE) < 0)
  66              		.loc 1 41 3 is_stmt 1 view .LVU12
  67              		.loc 1 41 7 is_stmt 0 view .LVU13
  68 002a 02A8     		add	r0, sp, #8
  69 002c FFF7FEFF 		bl	hci_send_req
  70              	.LVL0:
  71              		.loc 1 41 6 view .LVU14
  72 0030 0028     		cmp	r0, #0
  73 0032 04DB     		blt	.L3
  42:Middlewares/ST/BlueNRG-MS/hci/controller/bluenrg_gatt_aci.c ****     return BLE_STATUS_TIMEOUT;
ARM GAS  /tmp/cc8W75dr.s 			page 3


  43:Middlewares/ST/BlueNRG-MS/hci/controller/bluenrg_gatt_aci.c **** 
  44:Middlewares/ST/BlueNRG-MS/hci/controller/bluenrg_gatt_aci.c ****   return status;
  74              		.loc 1 44 3 is_stmt 1 view .LVU15
  75              		.loc 1 44 10 is_stmt 0 view .LVU16
  76 0034 9DF80700 		ldrb	r0, [sp, #7]	@ zero_extendqisi2
  77              	.L2:
  45:Middlewares/ST/BlueNRG-MS/hci/controller/bluenrg_gatt_aci.c **** }
  78              		.loc 1 45 1 view .LVU17
  79 0038 09B0     		add	sp, sp, #36
  80              	.LCFI2:
  81              		.cfi_remember_state
  82              		.cfi_def_cfa_offset 4
  83              		@ sp needed
  84 003a 5DF804FB 		ldr	pc, [sp], #4
  85              	.L3:
  86              	.LCFI3:
  87              		.cfi_restore_state
  42:Middlewares/ST/BlueNRG-MS/hci/controller/bluenrg_gatt_aci.c ****     return BLE_STATUS_TIMEOUT;
  88              		.loc 1 42 12 view .LVU18
  89 003e FF20     		movs	r0, #255
  90 0040 FAE7     		b	.L2
  91              		.cfi_endproc
  92              	.LFE292:
  94              		.section	.text.aci_gatt_add_serv,"ax",%progbits
  95              		.align	1
  96              		.global	aci_gatt_add_serv
  97              		.syntax unified
  98              		.thumb
  99              		.thumb_func
 101              	aci_gatt_add_serv:
 102              	.LVL1:
 103              	.LFB293:
  46:Middlewares/ST/BlueNRG-MS/hci/controller/bluenrg_gatt_aci.c **** 
  47:Middlewares/ST/BlueNRG-MS/hci/controller/bluenrg_gatt_aci.c **** tBleStatus aci_gatt_add_serv(uint8_t service_uuid_type, const uint8_t* service_uuid, uint8_t servic
  48:Middlewares/ST/BlueNRG-MS/hci/controller/bluenrg_gatt_aci.c **** {
 104              		.loc 1 48 1 is_stmt 1 view -0
 105              		.cfi_startproc
 106              		@ args = 4, pretend = 0, frame = 48
 107              		@ frame_needed = 0, uses_anonymous_args = 0
 108              		.loc 1 48 1 is_stmt 0 view .LVU20
 109 0000 70B5     		push	{r4, r5, r6, lr}
 110              	.LCFI4:
 111              		.cfi_def_cfa_offset 16
 112              		.cfi_offset 4, -16
 113              		.cfi_offset 5, -12
 114              		.cfi_offset 6, -8
 115              		.cfi_offset 14, -4
 116 0002 8CB0     		sub	sp, sp, #48
 117              	.LCFI5:
 118              		.cfi_def_cfa_offset 64
 119 0004 1646     		mov	r6, r2
 120 0006 1D46     		mov	r5, r3
  49:Middlewares/ST/BlueNRG-MS/hci/controller/bluenrg_gatt_aci.c ****   struct hci_request rq;
 121              		.loc 1 49 3 is_stmt 1 view .LVU21
  50:Middlewares/ST/BlueNRG-MS/hci/controller/bluenrg_gatt_aci.c ****   gatt_add_serv_rp resp;    
 122              		.loc 1 50 3 view .LVU22
  51:Middlewares/ST/BlueNRG-MS/hci/controller/bluenrg_gatt_aci.c ****   uint8_t buffer[19];
ARM GAS  /tmp/cc8W75dr.s 			page 4


 123              		.loc 1 51 3 view .LVU23
  52:Middlewares/ST/BlueNRG-MS/hci/controller/bluenrg_gatt_aci.c ****   uint8_t uuid_len;
 124              		.loc 1 52 3 view .LVU24
  53:Middlewares/ST/BlueNRG-MS/hci/controller/bluenrg_gatt_aci.c ****   uint8_t indx = 0;
 125              		.loc 1 53 3 view .LVU25
 126              	.LVL2:
  54:Middlewares/ST/BlueNRG-MS/hci/controller/bluenrg_gatt_aci.c ****     
  55:Middlewares/ST/BlueNRG-MS/hci/controller/bluenrg_gatt_aci.c ****   buffer[indx] = service_uuid_type;
 127              		.loc 1 55 3 view .LVU26
 128              		.loc 1 55 16 is_stmt 0 view .LVU27
 129 0008 8DF80000 		strb	r0, [sp]
  56:Middlewares/ST/BlueNRG-MS/hci/controller/bluenrg_gatt_aci.c ****   indx++;
 130              		.loc 1 56 3 is_stmt 1 view .LVU28
 131              	.LVL3:
  57:Middlewares/ST/BlueNRG-MS/hci/controller/bluenrg_gatt_aci.c ****     
  58:Middlewares/ST/BlueNRG-MS/hci/controller/bluenrg_gatt_aci.c ****   if(service_uuid_type == UUID_TYPE_16){
 132              		.loc 1 58 3 view .LVU29
 133              		.loc 1 58 5 is_stmt 0 view .LVU30
 134 000c 0128     		cmp	r0, #1
 135 000e 38D0     		beq	.L11
  59:Middlewares/ST/BlueNRG-MS/hci/controller/bluenrg_gatt_aci.c ****     uuid_len = 2;
  60:Middlewares/ST/BlueNRG-MS/hci/controller/bluenrg_gatt_aci.c ****   }
  61:Middlewares/ST/BlueNRG-MS/hci/controller/bluenrg_gatt_aci.c ****   else {
  62:Middlewares/ST/BlueNRG-MS/hci/controller/bluenrg_gatt_aci.c ****     uuid_len = 16;
 136              		.loc 1 62 14 view .LVU31
 137 0010 1024     		movs	r4, #16
 138              	.L6:
 139              	.LVL4:
  63:Middlewares/ST/BlueNRG-MS/hci/controller/bluenrg_gatt_aci.c ****   }        
  64:Middlewares/ST/BlueNRG-MS/hci/controller/bluenrg_gatt_aci.c ****   BLUENRG_memcpy(buffer + indx, service_uuid, uuid_len);
 140              		.loc 1 64 3 is_stmt 1 view .LVU32
 141 0012 2246     		mov	r2, r4
 142              	.LVL5:
 143              		.loc 1 64 3 is_stmt 0 view .LVU33
 144 0014 0DF10100 		add	r0, sp, #1
 145              	.LVL6:
 146              		.loc 1 64 3 view .LVU34
 147 0018 FFF7FEFF 		bl	memcpy
 148              	.LVL7:
  65:Middlewares/ST/BlueNRG-MS/hci/controller/bluenrg_gatt_aci.c ****   indx +=  uuid_len;
 149              		.loc 1 65 3 is_stmt 1 view .LVU35
  66:Middlewares/ST/BlueNRG-MS/hci/controller/bluenrg_gatt_aci.c ****     
  67:Middlewares/ST/BlueNRG-MS/hci/controller/bluenrg_gatt_aci.c ****   buffer[indx] = service_type;
 150              		.loc 1 67 3 view .LVU36
 151              		.loc 1 67 16 is_stmt 0 view .LVU37
 152 001c 04F13103 		add	r3, r4, #49
 153 0020 6B44     		add	r3, sp, r3
 154 0022 03F8306C 		strb	r6, [r3, #-48]
  68:Middlewares/ST/BlueNRG-MS/hci/controller/bluenrg_gatt_aci.c ****   indx++;
 155              		.loc 1 68 3 is_stmt 1 view .LVU38
 156              	.LVL8:
  69:Middlewares/ST/BlueNRG-MS/hci/controller/bluenrg_gatt_aci.c ****     
  70:Middlewares/ST/BlueNRG-MS/hci/controller/bluenrg_gatt_aci.c ****   buffer[indx] = max_attr_records;
 157              		.loc 1 70 3 view .LVU39
 158              		.loc 1 70 16 is_stmt 0 view .LVU40
 159 0026 04F13203 		add	r3, r4, #50
 160 002a 0DEB0302 		add	r2, sp, r3
ARM GAS  /tmp/cc8W75dr.s 			page 5


 161 002e 02F8305C 		strb	r5, [r2, #-48]
  71:Middlewares/ST/BlueNRG-MS/hci/controller/bluenrg_gatt_aci.c ****   indx++;
 162              		.loc 1 71 3 is_stmt 1 view .LVU41
 163              		.loc 1 71 7 is_stmt 0 view .LVU42
 164 0032 0334     		adds	r4, r4, #3
 165              	.LVL9:
  72:Middlewares/ST/BlueNRG-MS/hci/controller/bluenrg_gatt_aci.c ****     
  73:Middlewares/ST/BlueNRG-MS/hci/controller/bluenrg_gatt_aci.c ****     
  74:Middlewares/ST/BlueNRG-MS/hci/controller/bluenrg_gatt_aci.c ****   BLUENRG_memset(&resp, 0, sizeof(resp));
 166              		.loc 1 74 3 is_stmt 1 view .LVU43
 167 0034 05AB     		add	r3, sp, #20
 168 0036 0021     		movs	r1, #0
 169 0038 ADF81410 		strh	r1, [sp, #20]	@ movhi
 170 003c 8DF81610 		strb	r1, [sp, #22]
  75:Middlewares/ST/BlueNRG-MS/hci/controller/bluenrg_gatt_aci.c **** 
  76:Middlewares/ST/BlueNRG-MS/hci/controller/bluenrg_gatt_aci.c ****   BLUENRG_memset(&rq, 0, sizeof(rq));
 171              		.loc 1 76 3 view .LVU44
 172 0040 0691     		str	r1, [sp, #24]
 173 0042 0791     		str	r1, [sp, #28]
 174 0044 0891     		str	r1, [sp, #32]
 175 0046 0991     		str	r1, [sp, #36]
 176 0048 0A91     		str	r1, [sp, #40]
 177 004a 0B91     		str	r1, [sp, #44]
  77:Middlewares/ST/BlueNRG-MS/hci/controller/bluenrg_gatt_aci.c ****   rq.ogf = OGF_VENDOR_CMD;
 178              		.loc 1 77 3 view .LVU45
 179              		.loc 1 77 10 is_stmt 0 view .LVU46
 180 004c 3F22     		movs	r2, #63
 181 004e ADF81820 		strh	r2, [sp, #24]	@ movhi
  78:Middlewares/ST/BlueNRG-MS/hci/controller/bluenrg_gatt_aci.c ****   rq.ocf = OCF_GATT_ADD_SERV;
 182              		.loc 1 78 3 is_stmt 1 view .LVU47
 183              		.loc 1 78 10 is_stmt 0 view .LVU48
 184 0052 4FF48172 		mov	r2, #258
 185 0056 ADF81A20 		strh	r2, [sp, #26]	@ movhi
  79:Middlewares/ST/BlueNRG-MS/hci/controller/bluenrg_gatt_aci.c ****   rq.cparam = (void *)buffer;
 186              		.loc 1 79 3 is_stmt 1 view .LVU49
 187              		.loc 1 79 13 is_stmt 0 view .LVU50
 188 005a CDF820D0 		str	sp, [sp, #32]
  80:Middlewares/ST/BlueNRG-MS/hci/controller/bluenrg_gatt_aci.c ****   rq.clen = indx;
 189              		.loc 1 80 3 is_stmt 1 view .LVU51
 190              		.loc 1 80 11 is_stmt 0 view .LVU52
 191 005e 0994     		str	r4, [sp, #36]
  81:Middlewares/ST/BlueNRG-MS/hci/controller/bluenrg_gatt_aci.c ****   rq.rparam = &resp;
 192              		.loc 1 81 3 is_stmt 1 view .LVU53
 193              		.loc 1 81 13 is_stmt 0 view .LVU54
 194 0060 0A93     		str	r3, [sp, #40]
  82:Middlewares/ST/BlueNRG-MS/hci/controller/bluenrg_gatt_aci.c ****   rq.rlen = GATT_ADD_SERV_RP_SIZE;
 195              		.loc 1 82 3 is_stmt 1 view .LVU55
 196              		.loc 1 82 11 is_stmt 0 view .LVU56
 197 0062 0323     		movs	r3, #3
 198 0064 0B93     		str	r3, [sp, #44]
  83:Middlewares/ST/BlueNRG-MS/hci/controller/bluenrg_gatt_aci.c **** 
  84:Middlewares/ST/BlueNRG-MS/hci/controller/bluenrg_gatt_aci.c ****   if (hci_send_req(&rq, FALSE) < 0)
 199              		.loc 1 84 3 is_stmt 1 view .LVU57
 200              		.loc 1 84 7 is_stmt 0 view .LVU58
 201 0066 06A8     		add	r0, sp, #24
 202 0068 FFF7FEFF 		bl	hci_send_req
 203              	.LVL10:
ARM GAS  /tmp/cc8W75dr.s 			page 6


 204              		.loc 1 84 6 view .LVU59
 205 006c 0028     		cmp	r0, #0
 206 006e 0ADB     		blt	.L9
  85:Middlewares/ST/BlueNRG-MS/hci/controller/bluenrg_gatt_aci.c ****     return BLE_STATUS_TIMEOUT;
  86:Middlewares/ST/BlueNRG-MS/hci/controller/bluenrg_gatt_aci.c **** 
  87:Middlewares/ST/BlueNRG-MS/hci/controller/bluenrg_gatt_aci.c ****   if (resp.status) {
 207              		.loc 1 87 3 is_stmt 1 view .LVU60
 208              		.loc 1 87 11 is_stmt 0 view .LVU61
 209 0070 9DF81400 		ldrb	r0, [sp, #20]	@ zero_extendqisi2
 210              		.loc 1 87 6 view .LVU62
 211 0074 18B9     		cbnz	r0, .L7
  88:Middlewares/ST/BlueNRG-MS/hci/controller/bluenrg_gatt_aci.c ****     return resp.status;
  89:Middlewares/ST/BlueNRG-MS/hci/controller/bluenrg_gatt_aci.c ****   }
  90:Middlewares/ST/BlueNRG-MS/hci/controller/bluenrg_gatt_aci.c ****     
  91:Middlewares/ST/BlueNRG-MS/hci/controller/bluenrg_gatt_aci.c ****   *serviceHandle = btohs(resp.handle);
 212              		.loc 1 91 3 is_stmt 1 view .LVU63
 213              		.loc 1 91 20 is_stmt 0 view .LVU64
 214 0076 BDF81520 		ldrh	r2, [sp, #21]	@ unaligned
 215              		.loc 1 91 18 view .LVU65
 216 007a 109B     		ldr	r3, [sp, #64]
 217 007c 1A80     		strh	r2, [r3]	@ movhi
  92:Middlewares/ST/BlueNRG-MS/hci/controller/bluenrg_gatt_aci.c **** 
  93:Middlewares/ST/BlueNRG-MS/hci/controller/bluenrg_gatt_aci.c ****   return 0;
 218              		.loc 1 93 3 is_stmt 1 view .LVU66
 219              	.L7:
  94:Middlewares/ST/BlueNRG-MS/hci/controller/bluenrg_gatt_aci.c **** }
 220              		.loc 1 94 1 is_stmt 0 view .LVU67
 221 007e 0CB0     		add	sp, sp, #48
 222              	.LCFI6:
 223              		.cfi_remember_state
 224              		.cfi_def_cfa_offset 16
 225              		@ sp needed
 226 0080 70BD     		pop	{r4, r5, r6, pc}
 227              	.LVL11:
 228              	.L11:
 229              	.LCFI7:
 230              		.cfi_restore_state
  59:Middlewares/ST/BlueNRG-MS/hci/controller/bluenrg_gatt_aci.c ****   }
 231              		.loc 1 59 14 view .LVU68
 232 0082 0224     		movs	r4, #2
 233 0084 C5E7     		b	.L6
 234              	.LVL12:
 235              	.L9:
  85:Middlewares/ST/BlueNRG-MS/hci/controller/bluenrg_gatt_aci.c **** 
 236              		.loc 1 85 12 view .LVU69
 237 0086 FF20     		movs	r0, #255
 238 0088 F9E7     		b	.L7
 239              		.cfi_endproc
 240              	.LFE293:
 242              		.section	.text.aci_gatt_include_service,"ax",%progbits
 243              		.align	1
 244              		.global	aci_gatt_include_service
 245              		.syntax unified
 246              		.thumb
 247              		.thumb_func
 249              	aci_gatt_include_service:
 250              	.LVL13:
ARM GAS  /tmp/cc8W75dr.s 			page 7


 251              	.LFB294:
  95:Middlewares/ST/BlueNRG-MS/hci/controller/bluenrg_gatt_aci.c **** 
  96:Middlewares/ST/BlueNRG-MS/hci/controller/bluenrg_gatt_aci.c **** tBleStatus aci_gatt_include_service(uint16_t service_handle, uint16_t included_start_handle,
  97:Middlewares/ST/BlueNRG-MS/hci/controller/bluenrg_gatt_aci.c **** 				    uint16_t included_end_handle, uint8_t included_uuid_type,
  98:Middlewares/ST/BlueNRG-MS/hci/controller/bluenrg_gatt_aci.c **** 				    const uint8_t* included_uuid, uint16_t *included_handle)
  99:Middlewares/ST/BlueNRG-MS/hci/controller/bluenrg_gatt_aci.c **** {
 252              		.loc 1 99 1 is_stmt 1 view -0
 253              		.cfi_startproc
 254              		@ args = 8, pretend = 0, frame = 56
 255              		@ frame_needed = 0, uses_anonymous_args = 0
 256              		.loc 1 99 1 is_stmt 0 view .LVU71
 257 0000 10B5     		push	{r4, lr}
 258              	.LCFI8:
 259              		.cfi_def_cfa_offset 8
 260              		.cfi_offset 4, -8
 261              		.cfi_offset 14, -4
 262 0002 8EB0     		sub	sp, sp, #56
 263              	.LCFI9:
 264              		.cfi_def_cfa_offset 64
 100:Middlewares/ST/BlueNRG-MS/hci/controller/bluenrg_gatt_aci.c ****   struct hci_request rq;
 265              		.loc 1 100 3 is_stmt 1 view .LVU72
 101:Middlewares/ST/BlueNRG-MS/hci/controller/bluenrg_gatt_aci.c ****   gatt_include_serv_rp resp;    
 266              		.loc 1 101 3 view .LVU73
 102:Middlewares/ST/BlueNRG-MS/hci/controller/bluenrg_gatt_aci.c ****   uint8_t buffer[23];
 267              		.loc 1 102 3 view .LVU74
 103:Middlewares/ST/BlueNRG-MS/hci/controller/bluenrg_gatt_aci.c ****   uint8_t uuid_len;
 268              		.loc 1 103 3 view .LVU75
 104:Middlewares/ST/BlueNRG-MS/hci/controller/bluenrg_gatt_aci.c ****   uint8_t indx = 0;
 269              		.loc 1 104 3 view .LVU76
 270              	.LVL14:
 105:Middlewares/ST/BlueNRG-MS/hci/controller/bluenrg_gatt_aci.c **** 
 106:Middlewares/ST/BlueNRG-MS/hci/controller/bluenrg_gatt_aci.c ****   service_handle = htobs(service_handle);
 271              		.loc 1 106 3 view .LVU77
 107:Middlewares/ST/BlueNRG-MS/hci/controller/bluenrg_gatt_aci.c ****   BLUENRG_memcpy(buffer, &service_handle, 2);
 272              		.loc 1 107 3 view .LVU78
 273 0004 ADF80400 		strh	r0, [sp, #4]	@ movhi
 108:Middlewares/ST/BlueNRG-MS/hci/controller/bluenrg_gatt_aci.c ****   indx += 2;
 274              		.loc 1 108 3 view .LVU79
 275              	.LVL15:
 109:Middlewares/ST/BlueNRG-MS/hci/controller/bluenrg_gatt_aci.c ****     
 110:Middlewares/ST/BlueNRG-MS/hci/controller/bluenrg_gatt_aci.c ****   included_start_handle = htobs(included_start_handle);
 276              		.loc 1 110 3 view .LVU80
 111:Middlewares/ST/BlueNRG-MS/hci/controller/bluenrg_gatt_aci.c ****   BLUENRG_memcpy(buffer+indx, &included_start_handle, 2);
 277              		.loc 1 111 3 view .LVU81
 278 0008 ADF80610 		strh	r1, [sp, #6]	@ movhi
 112:Middlewares/ST/BlueNRG-MS/hci/controller/bluenrg_gatt_aci.c ****   indx += 2;
 279              		.loc 1 112 3 view .LVU82
 280              	.LVL16:
 113:Middlewares/ST/BlueNRG-MS/hci/controller/bluenrg_gatt_aci.c **** 
 114:Middlewares/ST/BlueNRG-MS/hci/controller/bluenrg_gatt_aci.c ****   included_end_handle = htobs(included_end_handle);
 281              		.loc 1 114 3 view .LVU83
 115:Middlewares/ST/BlueNRG-MS/hci/controller/bluenrg_gatt_aci.c ****   BLUENRG_memcpy(buffer+indx, &included_end_handle, 2);
 282              		.loc 1 115 3 view .LVU84
 283 000c ADF80820 		strh	r2, [sp, #8]	@ movhi
 116:Middlewares/ST/BlueNRG-MS/hci/controller/bluenrg_gatt_aci.c ****   indx += 2;
 284              		.loc 1 116 3 view .LVU85
 285              	.LVL17:
ARM GAS  /tmp/cc8W75dr.s 			page 8


 117:Middlewares/ST/BlueNRG-MS/hci/controller/bluenrg_gatt_aci.c **** 
 118:Middlewares/ST/BlueNRG-MS/hci/controller/bluenrg_gatt_aci.c ****   if(included_uuid_type == UUID_TYPE_16){
 286              		.loc 1 118 3 view .LVU86
 287              		.loc 1 118 5 is_stmt 0 view .LVU87
 288 0010 012B     		cmp	r3, #1
 289 0012 30D0     		beq	.L18
 119:Middlewares/ST/BlueNRG-MS/hci/controller/bluenrg_gatt_aci.c ****     uuid_len = 2;
 120:Middlewares/ST/BlueNRG-MS/hci/controller/bluenrg_gatt_aci.c ****   } else {
 121:Middlewares/ST/BlueNRG-MS/hci/controller/bluenrg_gatt_aci.c ****     uuid_len = 16;
 290              		.loc 1 121 14 view .LVU88
 291 0014 1024     		movs	r4, #16
 292              	.L13:
 293              	.LVL18:
 122:Middlewares/ST/BlueNRG-MS/hci/controller/bluenrg_gatt_aci.c ****   }        
 123:Middlewares/ST/BlueNRG-MS/hci/controller/bluenrg_gatt_aci.c **** 
 124:Middlewares/ST/BlueNRG-MS/hci/controller/bluenrg_gatt_aci.c ****   buffer[indx] = included_uuid_type;
 294              		.loc 1 124 3 is_stmt 1 view .LVU89
 295              		.loc 1 124 16 is_stmt 0 view .LVU90
 296 0016 8DF80A30 		strb	r3, [sp, #10]
 125:Middlewares/ST/BlueNRG-MS/hci/controller/bluenrg_gatt_aci.c ****   indx++;
 297              		.loc 1 125 3 is_stmt 1 view .LVU91
 298              	.LVL19:
 126:Middlewares/ST/BlueNRG-MS/hci/controller/bluenrg_gatt_aci.c **** 
 127:Middlewares/ST/BlueNRG-MS/hci/controller/bluenrg_gatt_aci.c ****   BLUENRG_memcpy(buffer + indx, included_uuid, uuid_len);
 299              		.loc 1 127 3 view .LVU92
 300 001a 2246     		mov	r2, r4
 301              	.LVL20:
 302              		.loc 1 127 3 is_stmt 0 view .LVU93
 303 001c 1099     		ldr	r1, [sp, #64]
 304              	.LVL21:
 305              		.loc 1 127 3 view .LVU94
 306 001e 0DF10B00 		add	r0, sp, #11
 307              	.LVL22:
 308              		.loc 1 127 3 view .LVU95
 309 0022 FFF7FEFF 		bl	memcpy
 310              	.LVL23:
 128:Middlewares/ST/BlueNRG-MS/hci/controller/bluenrg_gatt_aci.c ****   indx += uuid_len;
 311              		.loc 1 128 3 is_stmt 1 view .LVU96
 312              		.loc 1 128 8 is_stmt 0 view .LVU97
 313 0026 0734     		adds	r4, r4, #7
 314              	.LVL24:
 129:Middlewares/ST/BlueNRG-MS/hci/controller/bluenrg_gatt_aci.c ****     
 130:Middlewares/ST/BlueNRG-MS/hci/controller/bluenrg_gatt_aci.c ****   BLUENRG_memset(&resp, 0, sizeof(resp));
 315              		.loc 1 130 3 is_stmt 1 view .LVU98
 316 0028 07AB     		add	r3, sp, #28
 317 002a 0021     		movs	r1, #0
 318 002c ADF81C10 		strh	r1, [sp, #28]	@ movhi
 319 0030 8DF81E10 		strb	r1, [sp, #30]
 131:Middlewares/ST/BlueNRG-MS/hci/controller/bluenrg_gatt_aci.c **** 
 132:Middlewares/ST/BlueNRG-MS/hci/controller/bluenrg_gatt_aci.c ****   BLUENRG_memset(&rq, 0, sizeof(rq));
 320              		.loc 1 132 3 view .LVU99
 321 0034 0891     		str	r1, [sp, #32]
 322 0036 0991     		str	r1, [sp, #36]
 323 0038 0A91     		str	r1, [sp, #40]
 324 003a 0B91     		str	r1, [sp, #44]
 325 003c 0C91     		str	r1, [sp, #48]
 326 003e 0D91     		str	r1, [sp, #52]
ARM GAS  /tmp/cc8W75dr.s 			page 9


 133:Middlewares/ST/BlueNRG-MS/hci/controller/bluenrg_gatt_aci.c ****   rq.ogf = OGF_VENDOR_CMD;
 327              		.loc 1 133 3 view .LVU100
 328              		.loc 1 133 10 is_stmt 0 view .LVU101
 329 0040 3F22     		movs	r2, #63
 330 0042 ADF82020 		strh	r2, [sp, #32]	@ movhi
 134:Middlewares/ST/BlueNRG-MS/hci/controller/bluenrg_gatt_aci.c ****   rq.ocf = OCF_GATT_INCLUDE_SERV;
 331              		.loc 1 134 3 is_stmt 1 view .LVU102
 332              		.loc 1 134 10 is_stmt 0 view .LVU103
 333 0046 40F20312 		movw	r2, #259
 334 004a ADF82220 		strh	r2, [sp, #34]	@ movhi
 135:Middlewares/ST/BlueNRG-MS/hci/controller/bluenrg_gatt_aci.c ****   rq.cparam = (void *)buffer;
 335              		.loc 1 135 3 is_stmt 1 view .LVU104
 336              		.loc 1 135 13 is_stmt 0 view .LVU105
 337 004e 01AA     		add	r2, sp, #4
 338 0050 0A92     		str	r2, [sp, #40]
 136:Middlewares/ST/BlueNRG-MS/hci/controller/bluenrg_gatt_aci.c ****   rq.clen = indx;
 339              		.loc 1 136 3 is_stmt 1 view .LVU106
 340              		.loc 1 136 11 is_stmt 0 view .LVU107
 341 0052 0B94     		str	r4, [sp, #44]
 137:Middlewares/ST/BlueNRG-MS/hci/controller/bluenrg_gatt_aci.c ****   rq.rparam = &resp;
 342              		.loc 1 137 3 is_stmt 1 view .LVU108
 343              		.loc 1 137 13 is_stmt 0 view .LVU109
 344 0054 0C93     		str	r3, [sp, #48]
 138:Middlewares/ST/BlueNRG-MS/hci/controller/bluenrg_gatt_aci.c ****   rq.rlen = GATT_INCLUDE_SERV_RP_SIZE;
 345              		.loc 1 138 3 is_stmt 1 view .LVU110
 346              		.loc 1 138 11 is_stmt 0 view .LVU111
 347 0056 0323     		movs	r3, #3
 348 0058 0D93     		str	r3, [sp, #52]
 139:Middlewares/ST/BlueNRG-MS/hci/controller/bluenrg_gatt_aci.c **** 
 140:Middlewares/ST/BlueNRG-MS/hci/controller/bluenrg_gatt_aci.c ****   if (hci_send_req(&rq, FALSE) < 0)
 349              		.loc 1 140 3 is_stmt 1 view .LVU112
 350              		.loc 1 140 7 is_stmt 0 view .LVU113
 351 005a 08A8     		add	r0, sp, #32
 352 005c FFF7FEFF 		bl	hci_send_req
 353              	.LVL25:
 354              		.loc 1 140 6 view .LVU114
 355 0060 0028     		cmp	r0, #0
 356 0062 0ADB     		blt	.L16
 141:Middlewares/ST/BlueNRG-MS/hci/controller/bluenrg_gatt_aci.c ****     return BLE_STATUS_TIMEOUT;
 142:Middlewares/ST/BlueNRG-MS/hci/controller/bluenrg_gatt_aci.c **** 
 143:Middlewares/ST/BlueNRG-MS/hci/controller/bluenrg_gatt_aci.c ****   if (resp.status) {
 357              		.loc 1 143 3 is_stmt 1 view .LVU115
 358              		.loc 1 143 11 is_stmt 0 view .LVU116
 359 0064 9DF81C00 		ldrb	r0, [sp, #28]	@ zero_extendqisi2
 360              		.loc 1 143 6 view .LVU117
 361 0068 18B9     		cbnz	r0, .L14
 144:Middlewares/ST/BlueNRG-MS/hci/controller/bluenrg_gatt_aci.c ****     return resp.status;
 145:Middlewares/ST/BlueNRG-MS/hci/controller/bluenrg_gatt_aci.c ****   }
 146:Middlewares/ST/BlueNRG-MS/hci/controller/bluenrg_gatt_aci.c ****     
 147:Middlewares/ST/BlueNRG-MS/hci/controller/bluenrg_gatt_aci.c ****   *included_handle = btohs(resp.handle);
 362              		.loc 1 147 3 is_stmt 1 view .LVU118
 363              		.loc 1 147 22 is_stmt 0 view .LVU119
 364 006a BDF81D20 		ldrh	r2, [sp, #29]	@ unaligned
 365              		.loc 1 147 20 view .LVU120
 366 006e 119B     		ldr	r3, [sp, #68]
 367 0070 1A80     		strh	r2, [r3]	@ movhi
 148:Middlewares/ST/BlueNRG-MS/hci/controller/bluenrg_gatt_aci.c **** 
ARM GAS  /tmp/cc8W75dr.s 			page 10


 149:Middlewares/ST/BlueNRG-MS/hci/controller/bluenrg_gatt_aci.c ****   return 0;
 368              		.loc 1 149 3 is_stmt 1 view .LVU121
 369              	.L14:
 150:Middlewares/ST/BlueNRG-MS/hci/controller/bluenrg_gatt_aci.c **** }
 370              		.loc 1 150 1 is_stmt 0 view .LVU122
 371 0072 0EB0     		add	sp, sp, #56
 372              	.LCFI10:
 373              		.cfi_remember_state
 374              		.cfi_def_cfa_offset 8
 375              		@ sp needed
 376 0074 10BD     		pop	{r4, pc}
 377              	.LVL26:
 378              	.L18:
 379              	.LCFI11:
 380              		.cfi_restore_state
 119:Middlewares/ST/BlueNRG-MS/hci/controller/bluenrg_gatt_aci.c ****   } else {
 381              		.loc 1 119 14 view .LVU123
 382 0076 0224     		movs	r4, #2
 383 0078 CDE7     		b	.L13
 384              	.LVL27:
 385              	.L16:
 141:Middlewares/ST/BlueNRG-MS/hci/controller/bluenrg_gatt_aci.c **** 
 386              		.loc 1 141 12 view .LVU124
 387 007a FF20     		movs	r0, #255
 388 007c F9E7     		b	.L14
 389              		.cfi_endproc
 390              	.LFE294:
 392              		.section	.text.aci_gatt_add_char,"ax",%progbits
 393              		.align	1
 394              		.global	aci_gatt_add_char
 395              		.syntax unified
 396              		.thumb
 397              		.thumb_func
 399              	aci_gatt_add_char:
 400              	.LVL28:
 401              	.LFB295:
 151:Middlewares/ST/BlueNRG-MS/hci/controller/bluenrg_gatt_aci.c **** 
 152:Middlewares/ST/BlueNRG-MS/hci/controller/bluenrg_gatt_aci.c **** tBleStatus aci_gatt_add_char(uint16_t serviceHandle,
 153:Middlewares/ST/BlueNRG-MS/hci/controller/bluenrg_gatt_aci.c **** 			     uint8_t charUuidType,
 154:Middlewares/ST/BlueNRG-MS/hci/controller/bluenrg_gatt_aci.c **** 			     const uint8_t* charUuid, 
 155:Middlewares/ST/BlueNRG-MS/hci/controller/bluenrg_gatt_aci.c **** 			     uint8_t charValueLen, 
 156:Middlewares/ST/BlueNRG-MS/hci/controller/bluenrg_gatt_aci.c **** 			     uint8_t charProperties,
 157:Middlewares/ST/BlueNRG-MS/hci/controller/bluenrg_gatt_aci.c **** 			     uint8_t secPermissions,
 158:Middlewares/ST/BlueNRG-MS/hci/controller/bluenrg_gatt_aci.c **** 			     uint8_t gattEvtMask,
 159:Middlewares/ST/BlueNRG-MS/hci/controller/bluenrg_gatt_aci.c **** 			     uint8_t encryKeySize,
 160:Middlewares/ST/BlueNRG-MS/hci/controller/bluenrg_gatt_aci.c **** 			     uint8_t isVariable,
 161:Middlewares/ST/BlueNRG-MS/hci/controller/bluenrg_gatt_aci.c **** 			     uint16_t* charHandle)                     
 162:Middlewares/ST/BlueNRG-MS/hci/controller/bluenrg_gatt_aci.c **** {
 402              		.loc 1 162 1 is_stmt 1 view -0
 403              		.cfi_startproc
 404              		@ args = 24, pretend = 0, frame = 56
 405              		@ frame_needed = 0, uses_anonymous_args = 0
 406              		.loc 1 162 1 is_stmt 0 view .LVU126
 407 0000 30B5     		push	{r4, r5, lr}
 408              	.LCFI12:
 409              		.cfi_def_cfa_offset 12
 410              		.cfi_offset 4, -12
ARM GAS  /tmp/cc8W75dr.s 			page 11


 411              		.cfi_offset 5, -8
 412              		.cfi_offset 14, -4
 413 0002 8FB0     		sub	sp, sp, #60
 414              	.LCFI13:
 415              		.cfi_def_cfa_offset 72
 416 0004 0C46     		mov	r4, r1
 417 0006 1146     		mov	r1, r2
 418              	.LVL29:
 419              		.loc 1 162 1 view .LVU127
 420 0008 1D46     		mov	r5, r3
 163:Middlewares/ST/BlueNRG-MS/hci/controller/bluenrg_gatt_aci.c ****   struct hci_request rq;
 421              		.loc 1 163 3 is_stmt 1 view .LVU128
 164:Middlewares/ST/BlueNRG-MS/hci/controller/bluenrg_gatt_aci.c ****   gatt_add_serv_rp resp;
 422              		.loc 1 164 3 view .LVU129
 165:Middlewares/ST/BlueNRG-MS/hci/controller/bluenrg_gatt_aci.c ****   uint8_t buffer[25];
 423              		.loc 1 165 3 view .LVU130
 166:Middlewares/ST/BlueNRG-MS/hci/controller/bluenrg_gatt_aci.c ****   uint8_t uuid_len;
 424              		.loc 1 166 3 view .LVU131
 167:Middlewares/ST/BlueNRG-MS/hci/controller/bluenrg_gatt_aci.c ****   uint8_t indx = 0;
 425              		.loc 1 167 3 view .LVU132
 426              	.LVL30:
 168:Middlewares/ST/BlueNRG-MS/hci/controller/bluenrg_gatt_aci.c ****     
 169:Middlewares/ST/BlueNRG-MS/hci/controller/bluenrg_gatt_aci.c ****   serviceHandle = htobs(serviceHandle);
 427              		.loc 1 169 3 view .LVU133
 170:Middlewares/ST/BlueNRG-MS/hci/controller/bluenrg_gatt_aci.c ****   BLUENRG_memcpy(buffer + indx, &serviceHandle, 2);
 428              		.loc 1 170 3 view .LVU134
 429 000a ADF80000 		strh	r0, [sp]	@ movhi
 171:Middlewares/ST/BlueNRG-MS/hci/controller/bluenrg_gatt_aci.c ****   indx += 2;
 430              		.loc 1 171 3 view .LVU135
 431              	.LVL31:
 172:Middlewares/ST/BlueNRG-MS/hci/controller/bluenrg_gatt_aci.c ****     
 173:Middlewares/ST/BlueNRG-MS/hci/controller/bluenrg_gatt_aci.c ****   buffer[indx] = charUuidType;
 432              		.loc 1 173 3 view .LVU136
 433              		.loc 1 173 16 is_stmt 0 view .LVU137
 434 000e 8DF80240 		strb	r4, [sp, #2]
 174:Middlewares/ST/BlueNRG-MS/hci/controller/bluenrg_gatt_aci.c ****   indx++;
 435              		.loc 1 174 3 is_stmt 1 view .LVU138
 436              	.LVL32:
 175:Middlewares/ST/BlueNRG-MS/hci/controller/bluenrg_gatt_aci.c ****     
 176:Middlewares/ST/BlueNRG-MS/hci/controller/bluenrg_gatt_aci.c ****   if(charUuidType == UUID_TYPE_16){
 437              		.loc 1 176 3 view .LVU139
 438              		.loc 1 176 5 is_stmt 0 view .LVU140
 439 0012 012C     		cmp	r4, #1
 440 0014 56D0     		beq	.L25
 177:Middlewares/ST/BlueNRG-MS/hci/controller/bluenrg_gatt_aci.c ****     uuid_len = 2;
 178:Middlewares/ST/BlueNRG-MS/hci/controller/bluenrg_gatt_aci.c ****   }
 179:Middlewares/ST/BlueNRG-MS/hci/controller/bluenrg_gatt_aci.c ****   else {
 180:Middlewares/ST/BlueNRG-MS/hci/controller/bluenrg_gatt_aci.c ****     uuid_len = 16;
 441              		.loc 1 180 14 view .LVU141
 442 0016 1024     		movs	r4, #16
 443              	.L20:
 444              	.LVL33:
 181:Middlewares/ST/BlueNRG-MS/hci/controller/bluenrg_gatt_aci.c ****   }        
 182:Middlewares/ST/BlueNRG-MS/hci/controller/bluenrg_gatt_aci.c ****   BLUENRG_memcpy(buffer + indx, charUuid, uuid_len);
 445              		.loc 1 182 3 is_stmt 1 view .LVU142
 446 0018 2246     		mov	r2, r4
 447              	.LVL34:
ARM GAS  /tmp/cc8W75dr.s 			page 12


 448              		.loc 1 182 3 is_stmt 0 view .LVU143
 449 001a 0DF10300 		add	r0, sp, #3
 450              	.LVL35:
 451              		.loc 1 182 3 view .LVU144
 452 001e FFF7FEFF 		bl	memcpy
 453              	.LVL36:
 183:Middlewares/ST/BlueNRG-MS/hci/controller/bluenrg_gatt_aci.c ****   indx +=  uuid_len;
 454              		.loc 1 183 3 is_stmt 1 view .LVU145
 184:Middlewares/ST/BlueNRG-MS/hci/controller/bluenrg_gatt_aci.c ****     
 185:Middlewares/ST/BlueNRG-MS/hci/controller/bluenrg_gatt_aci.c ****   buffer[indx] = charValueLen;
 455              		.loc 1 185 3 view .LVU146
 456              		.loc 1 185 16 is_stmt 0 view .LVU147
 457 0022 04F13B03 		add	r3, r4, #59
 458 0026 0DEB0302 		add	r2, sp, r3
 459 002a 02F8385C 		strb	r5, [r2, #-56]
 186:Middlewares/ST/BlueNRG-MS/hci/controller/bluenrg_gatt_aci.c ****   indx++;
 460              		.loc 1 186 3 is_stmt 1 view .LVU148
 461              	.LVL37:
 187:Middlewares/ST/BlueNRG-MS/hci/controller/bluenrg_gatt_aci.c ****     
 188:Middlewares/ST/BlueNRG-MS/hci/controller/bluenrg_gatt_aci.c ****   buffer[indx] = charProperties;
 462              		.loc 1 188 3 view .LVU149
 463              		.loc 1 188 16 is_stmt 0 view .LVU150
 464 002e 04F13C03 		add	r3, r4, #60
 465              	.LVL38:
 466              		.loc 1 188 16 view .LVU151
 467 0032 6B44     		add	r3, sp, r3
 468 0034 9DF84820 		ldrb	r2, [sp, #72]	@ zero_extendqisi2
 469 0038 03F8382C 		strb	r2, [r3, #-56]
 189:Middlewares/ST/BlueNRG-MS/hci/controller/bluenrg_gatt_aci.c ****   indx++;
 470              		.loc 1 189 3 is_stmt 1 view .LVU152
 471              	.LVL39:
 190:Middlewares/ST/BlueNRG-MS/hci/controller/bluenrg_gatt_aci.c ****     
 191:Middlewares/ST/BlueNRG-MS/hci/controller/bluenrg_gatt_aci.c ****   buffer[indx] = secPermissions;
 472              		.loc 1 191 3 view .LVU153
 473              		.loc 1 191 16 is_stmt 0 view .LVU154
 474 003c 04F13D03 		add	r3, r4, #61
 475              	.LVL40:
 476              		.loc 1 191 16 view .LVU155
 477 0040 6B44     		add	r3, sp, r3
 478 0042 9DF84C20 		ldrb	r2, [sp, #76]	@ zero_extendqisi2
 479 0046 03F8382C 		strb	r2, [r3, #-56]
 192:Middlewares/ST/BlueNRG-MS/hci/controller/bluenrg_gatt_aci.c ****   indx++;
 480              		.loc 1 192 3 is_stmt 1 view .LVU156
 481              	.LVL41:
 193:Middlewares/ST/BlueNRG-MS/hci/controller/bluenrg_gatt_aci.c ****     
 194:Middlewares/ST/BlueNRG-MS/hci/controller/bluenrg_gatt_aci.c ****   buffer[indx] = gattEvtMask;
 482              		.loc 1 194 3 view .LVU157
 483              		.loc 1 194 16 is_stmt 0 view .LVU158
 484 004a 04F13E03 		add	r3, r4, #62
 485              	.LVL42:
 486              		.loc 1 194 16 view .LVU159
 487 004e 6B44     		add	r3, sp, r3
 488 0050 9DF85020 		ldrb	r2, [sp, #80]	@ zero_extendqisi2
 489 0054 03F8382C 		strb	r2, [r3, #-56]
 195:Middlewares/ST/BlueNRG-MS/hci/controller/bluenrg_gatt_aci.c ****   indx++;
 490              		.loc 1 195 3 is_stmt 1 view .LVU160
 491              	.LVL43:
ARM GAS  /tmp/cc8W75dr.s 			page 13


 196:Middlewares/ST/BlueNRG-MS/hci/controller/bluenrg_gatt_aci.c ****     
 197:Middlewares/ST/BlueNRG-MS/hci/controller/bluenrg_gatt_aci.c ****   buffer[indx] = encryKeySize;
 492              		.loc 1 197 3 view .LVU161
 493              		.loc 1 197 16 is_stmt 0 view .LVU162
 494 0058 04F13F03 		add	r3, r4, #63
 495              	.LVL44:
 496              		.loc 1 197 16 view .LVU163
 497 005c 6B44     		add	r3, sp, r3
 498 005e 9DF85420 		ldrb	r2, [sp, #84]	@ zero_extendqisi2
 499 0062 03F8382C 		strb	r2, [r3, #-56]
 198:Middlewares/ST/BlueNRG-MS/hci/controller/bluenrg_gatt_aci.c ****   indx++;
 500              		.loc 1 198 3 is_stmt 1 view .LVU164
 501              	.LVL45:
 199:Middlewares/ST/BlueNRG-MS/hci/controller/bluenrg_gatt_aci.c ****     
 200:Middlewares/ST/BlueNRG-MS/hci/controller/bluenrg_gatt_aci.c ****   buffer[indx] = isVariable;
 502              		.loc 1 200 3 view .LVU165
 503              		.loc 1 200 16 is_stmt 0 view .LVU166
 504 0066 04F14003 		add	r3, r4, #64
 505              	.LVL46:
 506              		.loc 1 200 16 view .LVU167
 507 006a 6B44     		add	r3, sp, r3
 508 006c 9DF85820 		ldrb	r2, [sp, #88]	@ zero_extendqisi2
 509 0070 03F8382C 		strb	r2, [r3, #-56]
 201:Middlewares/ST/BlueNRG-MS/hci/controller/bluenrg_gatt_aci.c ****   indx++;
 510              		.loc 1 201 3 is_stmt 1 view .LVU168
 511              		.loc 1 201 7 is_stmt 0 view .LVU169
 512 0074 0934     		adds	r4, r4, #9
 513              	.LVL47:
 202:Middlewares/ST/BlueNRG-MS/hci/controller/bluenrg_gatt_aci.c ****     
 203:Middlewares/ST/BlueNRG-MS/hci/controller/bluenrg_gatt_aci.c ****   BLUENRG_memset(&resp, 0, sizeof(resp));
 514              		.loc 1 203 3 is_stmt 1 view .LVU170
 515 0076 07AB     		add	r3, sp, #28
 516 0078 0021     		movs	r1, #0
 517 007a ADF81C10 		strh	r1, [sp, #28]	@ movhi
 518 007e 8DF81E10 		strb	r1, [sp, #30]
 204:Middlewares/ST/BlueNRG-MS/hci/controller/bluenrg_gatt_aci.c **** 
 205:Middlewares/ST/BlueNRG-MS/hci/controller/bluenrg_gatt_aci.c ****   BLUENRG_memset(&rq, 0, sizeof(rq));
 519              		.loc 1 205 3 view .LVU171
 520 0082 0891     		str	r1, [sp, #32]
 521 0084 0991     		str	r1, [sp, #36]
 522 0086 0A91     		str	r1, [sp, #40]
 523 0088 0B91     		str	r1, [sp, #44]
 524 008a 0C91     		str	r1, [sp, #48]
 525 008c 0D91     		str	r1, [sp, #52]
 206:Middlewares/ST/BlueNRG-MS/hci/controller/bluenrg_gatt_aci.c ****   rq.ogf = OGF_VENDOR_CMD;
 526              		.loc 1 206 3 view .LVU172
 527              		.loc 1 206 10 is_stmt 0 view .LVU173
 528 008e 3F22     		movs	r2, #63
 529 0090 ADF82020 		strh	r2, [sp, #32]	@ movhi
 207:Middlewares/ST/BlueNRG-MS/hci/controller/bluenrg_gatt_aci.c ****   rq.ocf = OCF_GATT_ADD_CHAR;
 530              		.loc 1 207 3 is_stmt 1 view .LVU174
 531              		.loc 1 207 10 is_stmt 0 view .LVU175
 532 0094 4FF48272 		mov	r2, #260
 533 0098 ADF82220 		strh	r2, [sp, #34]	@ movhi
 208:Middlewares/ST/BlueNRG-MS/hci/controller/bluenrg_gatt_aci.c ****   rq.cparam = (void *)buffer;
 534              		.loc 1 208 3 is_stmt 1 view .LVU176
 535              		.loc 1 208 13 is_stmt 0 view .LVU177
ARM GAS  /tmp/cc8W75dr.s 			page 14


 536 009c CDF828D0 		str	sp, [sp, #40]
 209:Middlewares/ST/BlueNRG-MS/hci/controller/bluenrg_gatt_aci.c ****   rq.clen = indx;
 537              		.loc 1 209 3 is_stmt 1 view .LVU178
 538              		.loc 1 209 11 is_stmt 0 view .LVU179
 539 00a0 0B94     		str	r4, [sp, #44]
 210:Middlewares/ST/BlueNRG-MS/hci/controller/bluenrg_gatt_aci.c ****   rq.rparam = &resp;
 540              		.loc 1 210 3 is_stmt 1 view .LVU180
 541              		.loc 1 210 13 is_stmt 0 view .LVU181
 542 00a2 0C93     		str	r3, [sp, #48]
 211:Middlewares/ST/BlueNRG-MS/hci/controller/bluenrg_gatt_aci.c ****   rq.rlen = GATT_ADD_CHAR_RP_SIZE;
 543              		.loc 1 211 3 is_stmt 1 view .LVU182
 544              		.loc 1 211 11 is_stmt 0 view .LVU183
 545 00a4 0323     		movs	r3, #3
 546 00a6 0D93     		str	r3, [sp, #52]
 212:Middlewares/ST/BlueNRG-MS/hci/controller/bluenrg_gatt_aci.c **** 
 213:Middlewares/ST/BlueNRG-MS/hci/controller/bluenrg_gatt_aci.c ****   if (hci_send_req(&rq, FALSE) < 0)
 547              		.loc 1 213 3 is_stmt 1 view .LVU184
 548              		.loc 1 213 7 is_stmt 0 view .LVU185
 549 00a8 08A8     		add	r0, sp, #32
 550 00aa FFF7FEFF 		bl	hci_send_req
 551              	.LVL48:
 552              		.loc 1 213 6 view .LVU186
 553 00ae 0028     		cmp	r0, #0
 554 00b0 0ADB     		blt	.L23
 214:Middlewares/ST/BlueNRG-MS/hci/controller/bluenrg_gatt_aci.c ****     return BLE_STATUS_TIMEOUT;
 215:Middlewares/ST/BlueNRG-MS/hci/controller/bluenrg_gatt_aci.c **** 
 216:Middlewares/ST/BlueNRG-MS/hci/controller/bluenrg_gatt_aci.c ****   if (resp.status) {
 555              		.loc 1 216 3 is_stmt 1 view .LVU187
 556              		.loc 1 216 11 is_stmt 0 view .LVU188
 557 00b2 9DF81C00 		ldrb	r0, [sp, #28]	@ zero_extendqisi2
 558              		.loc 1 216 6 view .LVU189
 559 00b6 18B9     		cbnz	r0, .L21
 217:Middlewares/ST/BlueNRG-MS/hci/controller/bluenrg_gatt_aci.c ****     return resp.status;
 218:Middlewares/ST/BlueNRG-MS/hci/controller/bluenrg_gatt_aci.c ****   }
 219:Middlewares/ST/BlueNRG-MS/hci/controller/bluenrg_gatt_aci.c ****     
 220:Middlewares/ST/BlueNRG-MS/hci/controller/bluenrg_gatt_aci.c ****   *charHandle = btohs(resp.handle);
 560              		.loc 1 220 3 is_stmt 1 view .LVU190
 561              		.loc 1 220 17 is_stmt 0 view .LVU191
 562 00b8 BDF81D20 		ldrh	r2, [sp, #29]	@ unaligned
 563              		.loc 1 220 15 view .LVU192
 564 00bc 179B     		ldr	r3, [sp, #92]
 565 00be 1A80     		strh	r2, [r3]	@ movhi
 221:Middlewares/ST/BlueNRG-MS/hci/controller/bluenrg_gatt_aci.c **** 
 222:Middlewares/ST/BlueNRG-MS/hci/controller/bluenrg_gatt_aci.c ****   return 0;
 566              		.loc 1 222 3 is_stmt 1 view .LVU193
 567              	.L21:
 223:Middlewares/ST/BlueNRG-MS/hci/controller/bluenrg_gatt_aci.c **** }
 568              		.loc 1 223 1 is_stmt 0 view .LVU194
 569 00c0 0FB0     		add	sp, sp, #60
 570              	.LCFI14:
 571              		.cfi_remember_state
 572              		.cfi_def_cfa_offset 12
 573              		@ sp needed
 574 00c2 30BD     		pop	{r4, r5, pc}
 575              	.LVL49:
 576              	.L25:
 577              	.LCFI15:
ARM GAS  /tmp/cc8W75dr.s 			page 15


 578              		.cfi_restore_state
 177:Middlewares/ST/BlueNRG-MS/hci/controller/bluenrg_gatt_aci.c ****   }
 579              		.loc 1 177 14 view .LVU195
 580 00c4 0224     		movs	r4, #2
 581 00c6 A7E7     		b	.L20
 582              	.LVL50:
 583              	.L23:
 214:Middlewares/ST/BlueNRG-MS/hci/controller/bluenrg_gatt_aci.c **** 
 584              		.loc 1 214 12 view .LVU196
 585 00c8 FF20     		movs	r0, #255
 586 00ca F9E7     		b	.L21
 587              		.cfi_endproc
 588              	.LFE295:
 590              		.section	.text.aci_gatt_add_char_desc,"ax",%progbits
 591              		.align	1
 592              		.global	aci_gatt_add_char_desc
 593              		.syntax unified
 594              		.thumb
 595              		.thumb_func
 597              	aci_gatt_add_char_desc:
 598              	.LVL51:
 599              	.LFB296:
 224:Middlewares/ST/BlueNRG-MS/hci/controller/bluenrg_gatt_aci.c **** 
 225:Middlewares/ST/BlueNRG-MS/hci/controller/bluenrg_gatt_aci.c **** tBleStatus aci_gatt_add_char_desc(uint16_t serviceHandle,
 226:Middlewares/ST/BlueNRG-MS/hci/controller/bluenrg_gatt_aci.c ****                                   uint16_t charHandle,
 227:Middlewares/ST/BlueNRG-MS/hci/controller/bluenrg_gatt_aci.c ****                                   uint8_t descUuidType,
 228:Middlewares/ST/BlueNRG-MS/hci/controller/bluenrg_gatt_aci.c ****                                   const uint8_t* uuid, 
 229:Middlewares/ST/BlueNRG-MS/hci/controller/bluenrg_gatt_aci.c ****                                   uint8_t descValueMaxLen,
 230:Middlewares/ST/BlueNRG-MS/hci/controller/bluenrg_gatt_aci.c ****                                   uint8_t descValueLen,
 231:Middlewares/ST/BlueNRG-MS/hci/controller/bluenrg_gatt_aci.c ****                                   const void* descValue, 
 232:Middlewares/ST/BlueNRG-MS/hci/controller/bluenrg_gatt_aci.c ****                                   uint8_t secPermissions,
 233:Middlewares/ST/BlueNRG-MS/hci/controller/bluenrg_gatt_aci.c ****                                   uint8_t accPermissions,
 234:Middlewares/ST/BlueNRG-MS/hci/controller/bluenrg_gatt_aci.c ****                                   uint8_t gattEvtMask,
 235:Middlewares/ST/BlueNRG-MS/hci/controller/bluenrg_gatt_aci.c ****                                   uint8_t encryKeySize,
 236:Middlewares/ST/BlueNRG-MS/hci/controller/bluenrg_gatt_aci.c ****                                   uint8_t isVariable,
 237:Middlewares/ST/BlueNRG-MS/hci/controller/bluenrg_gatt_aci.c ****                                   uint16_t* descHandle)                     
 238:Middlewares/ST/BlueNRG-MS/hci/controller/bluenrg_gatt_aci.c **** {
 600              		.loc 1 238 1 is_stmt 1 view -0
 601              		.cfi_startproc
 602              		@ args = 36, pretend = 0, frame = 160
 603              		@ frame_needed = 0, uses_anonymous_args = 0
 604              		.loc 1 238 1 is_stmt 0 view .LVU198
 605 0000 70B5     		push	{r4, r5, r6, lr}
 606              	.LCFI16:
 607              		.cfi_def_cfa_offset 16
 608              		.cfi_offset 4, -16
 609              		.cfi_offset 5, -12
 610              		.cfi_offset 6, -8
 611              		.cfi_offset 14, -4
 612 0002 A8B0     		sub	sp, sp, #160
 613              	.LCFI17:
 614              		.cfi_def_cfa_offset 176
 615 0004 9DF8B440 		ldrb	r4, [sp, #180]	@ zero_extendqisi2
 239:Middlewares/ST/BlueNRG-MS/hci/controller/bluenrg_gatt_aci.c ****   struct hci_request rq;
 616              		.loc 1 239 3 is_stmt 1 view .LVU199
 240:Middlewares/ST/BlueNRG-MS/hci/controller/bluenrg_gatt_aci.c ****   gatt_add_char_desc_rp resp;
 617              		.loc 1 240 3 view .LVU200
ARM GAS  /tmp/cc8W75dr.s 			page 16


 241:Middlewares/ST/BlueNRG-MS/hci/controller/bluenrg_gatt_aci.c ****   uint8_t buffer[HCI_MAX_PAYLOAD_SIZE];
 618              		.loc 1 241 3 view .LVU201
 242:Middlewares/ST/BlueNRG-MS/hci/controller/bluenrg_gatt_aci.c ****   uint8_t uuid_len;
 619              		.loc 1 242 3 view .LVU202
 243:Middlewares/ST/BlueNRG-MS/hci/controller/bluenrg_gatt_aci.c ****   uint8_t indx = 0;
 620              		.loc 1 243 3 view .LVU203
 621              	.LVL52:
 244:Middlewares/ST/BlueNRG-MS/hci/controller/bluenrg_gatt_aci.c ****     
 245:Middlewares/ST/BlueNRG-MS/hci/controller/bluenrg_gatt_aci.c ****   serviceHandle = htobs(serviceHandle);
 622              		.loc 1 245 3 view .LVU204
 246:Middlewares/ST/BlueNRG-MS/hci/controller/bluenrg_gatt_aci.c ****   BLUENRG_memcpy(buffer + indx, &serviceHandle, 2);
 623              		.loc 1 246 3 view .LVU205
 624 0008 ADF80400 		strh	r0, [sp, #4]	@ movhi
 247:Middlewares/ST/BlueNRG-MS/hci/controller/bluenrg_gatt_aci.c ****   indx += 2;
 625              		.loc 1 247 3 view .LVU206
 626              	.LVL53:
 248:Middlewares/ST/BlueNRG-MS/hci/controller/bluenrg_gatt_aci.c ****     
 249:Middlewares/ST/BlueNRG-MS/hci/controller/bluenrg_gatt_aci.c ****   charHandle = htobs(charHandle);
 627              		.loc 1 249 3 view .LVU207
 250:Middlewares/ST/BlueNRG-MS/hci/controller/bluenrg_gatt_aci.c ****   BLUENRG_memcpy(buffer + indx, &charHandle, 2);
 628              		.loc 1 250 3 view .LVU208
 629 000c ADF80610 		strh	r1, [sp, #6]	@ movhi
 251:Middlewares/ST/BlueNRG-MS/hci/controller/bluenrg_gatt_aci.c ****   indx += 2;
 630              		.loc 1 251 3 view .LVU209
 631              	.LVL54:
 252:Middlewares/ST/BlueNRG-MS/hci/controller/bluenrg_gatt_aci.c ****     
 253:Middlewares/ST/BlueNRG-MS/hci/controller/bluenrg_gatt_aci.c ****   buffer[indx] = descUuidType;
 632              		.loc 1 253 3 view .LVU210
 633              		.loc 1 253 16 is_stmt 0 view .LVU211
 634 0010 8DF80820 		strb	r2, [sp, #8]
 254:Middlewares/ST/BlueNRG-MS/hci/controller/bluenrg_gatt_aci.c ****   indx++;
 635              		.loc 1 254 3 is_stmt 1 view .LVU212
 636              	.LVL55:
 255:Middlewares/ST/BlueNRG-MS/hci/controller/bluenrg_gatt_aci.c ****     
 256:Middlewares/ST/BlueNRG-MS/hci/controller/bluenrg_gatt_aci.c ****   if(descUuidType == UUID_TYPE_16){
 637              		.loc 1 256 3 view .LVU213
 638              		.loc 1 256 5 is_stmt 0 view .LVU214
 639 0014 012A     		cmp	r2, #1
 640 0016 6CD0     		beq	.L33
 257:Middlewares/ST/BlueNRG-MS/hci/controller/bluenrg_gatt_aci.c ****     uuid_len = 2;
 258:Middlewares/ST/BlueNRG-MS/hci/controller/bluenrg_gatt_aci.c ****   }
 259:Middlewares/ST/BlueNRG-MS/hci/controller/bluenrg_gatt_aci.c ****   else {
 260:Middlewares/ST/BlueNRG-MS/hci/controller/bluenrg_gatt_aci.c ****     uuid_len = 16;
 641              		.loc 1 260 14 view .LVU215
 642 0018 1025     		movs	r5, #16
 643              	.L27:
 644              	.LVL56:
 261:Middlewares/ST/BlueNRG-MS/hci/controller/bluenrg_gatt_aci.c ****   }        
 262:Middlewares/ST/BlueNRG-MS/hci/controller/bluenrg_gatt_aci.c ****   BLUENRG_memcpy(buffer + indx, uuid, uuid_len);
 645              		.loc 1 262 3 is_stmt 1 view .LVU216
 646 001a 2A46     		mov	r2, r5
 647              	.LVL57:
 648              		.loc 1 262 3 is_stmt 0 view .LVU217
 649 001c 1946     		mov	r1, r3
 650              	.LVL58:
 651              		.loc 1 262 3 view .LVU218
 652 001e 0DF10900 		add	r0, sp, #9
ARM GAS  /tmp/cc8W75dr.s 			page 17


 653              	.LVL59:
 654              		.loc 1 262 3 view .LVU219
 655 0022 FFF7FEFF 		bl	memcpy
 656              	.LVL60:
 263:Middlewares/ST/BlueNRG-MS/hci/controller/bluenrg_gatt_aci.c ****   indx +=  uuid_len;
 657              		.loc 1 263 3 is_stmt 1 view .LVU220
 264:Middlewares/ST/BlueNRG-MS/hci/controller/bluenrg_gatt_aci.c ****     
 265:Middlewares/ST/BlueNRG-MS/hci/controller/bluenrg_gatt_aci.c ****   buffer[indx] = descValueMaxLen;
 658              		.loc 1 265 3 view .LVU221
 659              		.loc 1 265 16 is_stmt 0 view .LVU222
 660 0026 05F1A503 		add	r3, r5, #165
 661 002a 6B44     		add	r3, sp, r3
 662 002c 9DF8B020 		ldrb	r2, [sp, #176]	@ zero_extendqisi2
 663 0030 03F89C2C 		strb	r2, [r3, #-156]
 266:Middlewares/ST/BlueNRG-MS/hci/controller/bluenrg_gatt_aci.c ****   indx++;
 664              		.loc 1 266 3 is_stmt 1 view .LVU223
 665              	.LVL61:
 267:Middlewares/ST/BlueNRG-MS/hci/controller/bluenrg_gatt_aci.c ****     
 268:Middlewares/ST/BlueNRG-MS/hci/controller/bluenrg_gatt_aci.c ****   buffer[indx] = descValueLen;
 666              		.loc 1 268 3 view .LVU224
 667              		.loc 1 268 16 is_stmt 0 view .LVU225
 668 0034 05F1A603 		add	r3, r5, #166
 669              	.LVL62:
 670              		.loc 1 268 16 view .LVU226
 671 0038 6B44     		add	r3, sp, r3
 672 003a 03F89C4C 		strb	r4, [r3, #-156]
 269:Middlewares/ST/BlueNRG-MS/hci/controller/bluenrg_gatt_aci.c ****   indx++;
 673              		.loc 1 269 3 is_stmt 1 view .LVU227
 674              		.loc 1 269 7 is_stmt 0 view .LVU228
 675 003e 0735     		adds	r5, r5, #7
 676              	.LVL63:
 270:Middlewares/ST/BlueNRG-MS/hci/controller/bluenrg_gatt_aci.c **** 
 271:Middlewares/ST/BlueNRG-MS/hci/controller/bluenrg_gatt_aci.c ****   if ((descValueLen+indx+5) > HCI_MAX_PAYLOAD_SIZE)
 677              		.loc 1 271 3 is_stmt 1 view .LVU229
 678              		.loc 1 271 20 is_stmt 0 view .LVU230
 679 0040 6319     		adds	r3, r4, r5
 680              		.loc 1 271 6 view .LVU231
 681 0042 7B2B     		cmp	r3, #123
 682 0044 57DC     		bgt	.L30
 272:Middlewares/ST/BlueNRG-MS/hci/controller/bluenrg_gatt_aci.c ****     return BLE_STATUS_INVALID_PARAMS;
 273:Middlewares/ST/BlueNRG-MS/hci/controller/bluenrg_gatt_aci.c ****   
 274:Middlewares/ST/BlueNRG-MS/hci/controller/bluenrg_gatt_aci.c ****   BLUENRG_memcpy(buffer + indx, descValue, descValueLen);
 683              		.loc 1 274 3 is_stmt 1 view .LVU232
 684 0046 01AE     		add	r6, sp, #4
 685 0048 2246     		mov	r2, r4
 686 004a 2E99     		ldr	r1, [sp, #184]
 687 004c 7019     		adds	r0, r6, r5
 688 004e FFF7FEFF 		bl	memcpy
 689              	.LVL64:
 275:Middlewares/ST/BlueNRG-MS/hci/controller/bluenrg_gatt_aci.c ****   indx += descValueLen;
 690              		.loc 1 275 3 view .LVU233
 691              		.loc 1 275 8 is_stmt 0 view .LVU234
 692 0052 6219     		adds	r2, r4, r5
 693 0054 D2B2     		uxtb	r2, r2
 694              	.LVL65:
 276:Middlewares/ST/BlueNRG-MS/hci/controller/bluenrg_gatt_aci.c ****     
 277:Middlewares/ST/BlueNRG-MS/hci/controller/bluenrg_gatt_aci.c ****   buffer[indx] = secPermissions;
ARM GAS  /tmp/cc8W75dr.s 			page 18


 695              		.loc 1 277 3 is_stmt 1 view .LVU235
 696              		.loc 1 277 16 is_stmt 0 view .LVU236
 697 0056 02F1A003 		add	r3, r2, #160
 698 005a 6B44     		add	r3, sp, r3
 699 005c 9DF8BC10 		ldrb	r1, [sp, #188]	@ zero_extendqisi2
 700 0060 03F89C1C 		strb	r1, [r3, #-156]
 278:Middlewares/ST/BlueNRG-MS/hci/controller/bluenrg_gatt_aci.c ****   indx++;
 701              		.loc 1 278 3 is_stmt 1 view .LVU237
 702              		.loc 1 278 7 is_stmt 0 view .LVU238
 703 0064 531C     		adds	r3, r2, #1
 704              	.LVL66:
 279:Middlewares/ST/BlueNRG-MS/hci/controller/bluenrg_gatt_aci.c ****     
 280:Middlewares/ST/BlueNRG-MS/hci/controller/bluenrg_gatt_aci.c ****   buffer[indx] = accPermissions;
 705              		.loc 1 280 3 is_stmt 1 view .LVU239
 706              		.loc 1 280 16 is_stmt 0 view .LVU240
 707 0066 28A9     		add	r1, sp, #160
 708 0068 51FA83F3 		uxtab	r3, r1, r3
 709              	.LVL67:
 710              		.loc 1 280 16 view .LVU241
 711 006c 9DF8C010 		ldrb	r1, [sp, #192]	@ zero_extendqisi2
 712 0070 03F89C1C 		strb	r1, [r3, #-156]
 281:Middlewares/ST/BlueNRG-MS/hci/controller/bluenrg_gatt_aci.c ****   indx++;
 713              		.loc 1 281 3 is_stmt 1 view .LVU242
 714              		.loc 1 281 7 is_stmt 0 view .LVU243
 715 0074 931C     		adds	r3, r2, #2
 716              	.LVL68:
 282:Middlewares/ST/BlueNRG-MS/hci/controller/bluenrg_gatt_aci.c ****     
 283:Middlewares/ST/BlueNRG-MS/hci/controller/bluenrg_gatt_aci.c ****   buffer[indx] = gattEvtMask;
 717              		.loc 1 283 3 is_stmt 1 view .LVU244
 718              		.loc 1 283 16 is_stmt 0 view .LVU245
 719 0076 28A9     		add	r1, sp, #160
 720 0078 51FA83F3 		uxtab	r3, r1, r3
 721              	.LVL69:
 722              		.loc 1 283 16 view .LVU246
 723 007c 9DF8C410 		ldrb	r1, [sp, #196]	@ zero_extendqisi2
 724 0080 03F89C1C 		strb	r1, [r3, #-156]
 284:Middlewares/ST/BlueNRG-MS/hci/controller/bluenrg_gatt_aci.c ****   indx++;
 725              		.loc 1 284 3 is_stmt 1 view .LVU247
 726              		.loc 1 284 7 is_stmt 0 view .LVU248
 727 0084 D31C     		adds	r3, r2, #3
 728              	.LVL70:
 285:Middlewares/ST/BlueNRG-MS/hci/controller/bluenrg_gatt_aci.c ****     
 286:Middlewares/ST/BlueNRG-MS/hci/controller/bluenrg_gatt_aci.c ****   buffer[indx] = encryKeySize;
 729              		.loc 1 286 3 is_stmt 1 view .LVU249
 730              		.loc 1 286 16 is_stmt 0 view .LVU250
 731 0086 28A9     		add	r1, sp, #160
 732 0088 51FA83F3 		uxtab	r3, r1, r3
 733              	.LVL71:
 734              		.loc 1 286 16 view .LVU251
 735 008c 9DF8C810 		ldrb	r1, [sp, #200]	@ zero_extendqisi2
 736 0090 03F89C1C 		strb	r1, [r3, #-156]
 287:Middlewares/ST/BlueNRG-MS/hci/controller/bluenrg_gatt_aci.c ****   indx++;
 737              		.loc 1 287 3 is_stmt 1 view .LVU252
 738              		.loc 1 287 7 is_stmt 0 view .LVU253
 739 0094 131D     		adds	r3, r2, #4
 740              	.LVL72:
 288:Middlewares/ST/BlueNRG-MS/hci/controller/bluenrg_gatt_aci.c ****     
ARM GAS  /tmp/cc8W75dr.s 			page 19


 289:Middlewares/ST/BlueNRG-MS/hci/controller/bluenrg_gatt_aci.c ****   buffer[indx] = isVariable;
 741              		.loc 1 289 3 is_stmt 1 view .LVU254
 742              		.loc 1 289 16 is_stmt 0 view .LVU255
 743 0096 28A9     		add	r1, sp, #160
 744 0098 51FA83F3 		uxtab	r3, r1, r3
 745              	.LVL73:
 746              		.loc 1 289 16 view .LVU256
 747 009c 9DF8CC10 		ldrb	r1, [sp, #204]	@ zero_extendqisi2
 748 00a0 03F89C1C 		strb	r1, [r3, #-156]
 290:Middlewares/ST/BlueNRG-MS/hci/controller/bluenrg_gatt_aci.c ****   indx++;
 749              		.loc 1 290 3 is_stmt 1 view .LVU257
 750              		.loc 1 290 7 is_stmt 0 view .LVU258
 751 00a4 0532     		adds	r2, r2, #5
 752              	.LVL74:
 753              		.loc 1 290 7 view .LVU259
 754 00a6 D2B2     		uxtb	r2, r2
 755              	.LVL75:
 291:Middlewares/ST/BlueNRG-MS/hci/controller/bluenrg_gatt_aci.c ****     
 292:Middlewares/ST/BlueNRG-MS/hci/controller/bluenrg_gatt_aci.c ****   BLUENRG_memset(&resp, 0, sizeof(resp));
 756              		.loc 1 292 3 is_stmt 1 view .LVU260
 757 00a8 21AB     		add	r3, sp, #132
 758 00aa 0021     		movs	r1, #0
 759 00ac ADF88410 		strh	r1, [sp, #132]	@ movhi
 760 00b0 8DF88610 		strb	r1, [sp, #134]
 293:Middlewares/ST/BlueNRG-MS/hci/controller/bluenrg_gatt_aci.c **** 
 294:Middlewares/ST/BlueNRG-MS/hci/controller/bluenrg_gatt_aci.c ****   BLUENRG_memset(&rq, 0, sizeof(rq));
 761              		.loc 1 294 3 view .LVU261
 762 00b4 2291     		str	r1, [sp, #136]
 763 00b6 2391     		str	r1, [sp, #140]
 764 00b8 2491     		str	r1, [sp, #144]
 765 00ba 2591     		str	r1, [sp, #148]
 766 00bc 2691     		str	r1, [sp, #152]
 767 00be 2791     		str	r1, [sp, #156]
 295:Middlewares/ST/BlueNRG-MS/hci/controller/bluenrg_gatt_aci.c ****   rq.ogf = OGF_VENDOR_CMD;
 768              		.loc 1 295 3 view .LVU262
 769              		.loc 1 295 10 is_stmt 0 view .LVU263
 770 00c0 3F20     		movs	r0, #63
 771 00c2 ADF88800 		strh	r0, [sp, #136]	@ movhi
 296:Middlewares/ST/BlueNRG-MS/hci/controller/bluenrg_gatt_aci.c ****   rq.ocf = OCF_GATT_ADD_CHAR_DESC;
 772              		.loc 1 296 3 is_stmt 1 view .LVU264
 773              		.loc 1 296 10 is_stmt 0 view .LVU265
 774 00c6 40F20510 		movw	r0, #261
 775 00ca ADF88A00 		strh	r0, [sp, #138]	@ movhi
 297:Middlewares/ST/BlueNRG-MS/hci/controller/bluenrg_gatt_aci.c ****   rq.cparam = (void *)buffer;
 776              		.loc 1 297 3 is_stmt 1 view .LVU266
 777              		.loc 1 297 13 is_stmt 0 view .LVU267
 778 00ce 2496     		str	r6, [sp, #144]
 298:Middlewares/ST/BlueNRG-MS/hci/controller/bluenrg_gatt_aci.c ****   rq.clen = indx;
 779              		.loc 1 298 3 is_stmt 1 view .LVU268
 780              		.loc 1 298 11 is_stmt 0 view .LVU269
 781 00d0 2592     		str	r2, [sp, #148]
 299:Middlewares/ST/BlueNRG-MS/hci/controller/bluenrg_gatt_aci.c ****   rq.rparam = &resp;
 782              		.loc 1 299 3 is_stmt 1 view .LVU270
 783              		.loc 1 299 13 is_stmt 0 view .LVU271
 784 00d2 2693     		str	r3, [sp, #152]
 300:Middlewares/ST/BlueNRG-MS/hci/controller/bluenrg_gatt_aci.c ****   rq.rlen = GATT_ADD_CHAR_DESC_RP_SIZE;
 785              		.loc 1 300 3 is_stmt 1 view .LVU272
ARM GAS  /tmp/cc8W75dr.s 			page 20


 786              		.loc 1 300 11 is_stmt 0 view .LVU273
 787 00d4 0323     		movs	r3, #3
 788 00d6 2793     		str	r3, [sp, #156]
 301:Middlewares/ST/BlueNRG-MS/hci/controller/bluenrg_gatt_aci.c **** 
 302:Middlewares/ST/BlueNRG-MS/hci/controller/bluenrg_gatt_aci.c ****   if (hci_send_req(&rq, FALSE) < 0)
 789              		.loc 1 302 3 is_stmt 1 view .LVU274
 790              		.loc 1 302 7 is_stmt 0 view .LVU275
 791 00d8 22A8     		add	r0, sp, #136
 792 00da FFF7FEFF 		bl	hci_send_req
 793              	.LVL76:
 794              		.loc 1 302 6 view .LVU276
 795 00de 0028     		cmp	r0, #0
 796 00e0 0CDB     		blt	.L31
 303:Middlewares/ST/BlueNRG-MS/hci/controller/bluenrg_gatt_aci.c ****     return BLE_STATUS_TIMEOUT;
 304:Middlewares/ST/BlueNRG-MS/hci/controller/bluenrg_gatt_aci.c **** 
 305:Middlewares/ST/BlueNRG-MS/hci/controller/bluenrg_gatt_aci.c ****   if (resp.status) {
 797              		.loc 1 305 3 is_stmt 1 view .LVU277
 798              		.loc 1 305 11 is_stmt 0 view .LVU278
 799 00e2 9DF88400 		ldrb	r0, [sp, #132]	@ zero_extendqisi2
 800              		.loc 1 305 6 view .LVU279
 801 00e6 38B9     		cbnz	r0, .L28
 306:Middlewares/ST/BlueNRG-MS/hci/controller/bluenrg_gatt_aci.c ****     return resp.status;
 307:Middlewares/ST/BlueNRG-MS/hci/controller/bluenrg_gatt_aci.c ****   }
 308:Middlewares/ST/BlueNRG-MS/hci/controller/bluenrg_gatt_aci.c ****     
 309:Middlewares/ST/BlueNRG-MS/hci/controller/bluenrg_gatt_aci.c ****   *descHandle = btohs(resp.handle);
 802              		.loc 1 309 3 is_stmt 1 view .LVU280
 803              		.loc 1 309 17 is_stmt 0 view .LVU281
 804 00e8 BDF88520 		ldrh	r2, [sp, #133]	@ unaligned
 805              		.loc 1 309 15 view .LVU282
 806 00ec 349B     		ldr	r3, [sp, #208]
 807 00ee 1A80     		strh	r2, [r3]	@ movhi
 310:Middlewares/ST/BlueNRG-MS/hci/controller/bluenrg_gatt_aci.c **** 
 311:Middlewares/ST/BlueNRG-MS/hci/controller/bluenrg_gatt_aci.c ****   return 0;
 808              		.loc 1 311 3 is_stmt 1 view .LVU283
 809              		.loc 1 311 10 is_stmt 0 view .LVU284
 810 00f0 02E0     		b	.L28
 811              	.LVL77:
 812              	.L33:
 257:Middlewares/ST/BlueNRG-MS/hci/controller/bluenrg_gatt_aci.c ****   }
 813              		.loc 1 257 14 view .LVU285
 814 00f2 0225     		movs	r5, #2
 815 00f4 91E7     		b	.L27
 816              	.LVL78:
 817              	.L30:
 272:Middlewares/ST/BlueNRG-MS/hci/controller/bluenrg_gatt_aci.c ****   
 818              		.loc 1 272 12 view .LVU286
 819 00f6 4220     		movs	r0, #66
 820              	.LVL79:
 821              	.L28:
 312:Middlewares/ST/BlueNRG-MS/hci/controller/bluenrg_gatt_aci.c **** }
 822              		.loc 1 312 1 view .LVU287
 823 00f8 28B0     		add	sp, sp, #160
 824              	.LCFI18:
 825              		.cfi_remember_state
 826              		.cfi_def_cfa_offset 16
 827              		@ sp needed
 828 00fa 70BD     		pop	{r4, r5, r6, pc}
ARM GAS  /tmp/cc8W75dr.s 			page 21


 829              	.LVL80:
 830              	.L31:
 831              	.LCFI19:
 832              		.cfi_restore_state
 303:Middlewares/ST/BlueNRG-MS/hci/controller/bluenrg_gatt_aci.c **** 
 833              		.loc 1 303 12 view .LVU288
 834 00fc FF20     		movs	r0, #255
 835 00fe FBE7     		b	.L28
 836              		.cfi_endproc
 837              	.LFE296:
 839              		.section	.text.aci_gatt_update_char_value,"ax",%progbits
 840              		.align	1
 841              		.global	aci_gatt_update_char_value
 842              		.syntax unified
 843              		.thumb
 844              		.thumb_func
 846              	aci_gatt_update_char_value:
 847              	.LVL81:
 848              	.LFB297:
 313:Middlewares/ST/BlueNRG-MS/hci/controller/bluenrg_gatt_aci.c **** 
 314:Middlewares/ST/BlueNRG-MS/hci/controller/bluenrg_gatt_aci.c **** 
 315:Middlewares/ST/BlueNRG-MS/hci/controller/bluenrg_gatt_aci.c **** tBleStatus aci_gatt_update_char_value(uint16_t servHandle, 
 316:Middlewares/ST/BlueNRG-MS/hci/controller/bluenrg_gatt_aci.c **** 				      uint16_t charHandle,
 317:Middlewares/ST/BlueNRG-MS/hci/controller/bluenrg_gatt_aci.c **** 				      uint8_t charValOffset,
 318:Middlewares/ST/BlueNRG-MS/hci/controller/bluenrg_gatt_aci.c **** 				      uint8_t charValueLen,   
 319:Middlewares/ST/BlueNRG-MS/hci/controller/bluenrg_gatt_aci.c ****                                       const void *charValue)
 320:Middlewares/ST/BlueNRG-MS/hci/controller/bluenrg_gatt_aci.c **** {
 849              		.loc 1 320 1 is_stmt 1 view -0
 850              		.cfi_startproc
 851              		@ args = 4, pretend = 0, frame = 160
 852              		@ frame_needed = 0, uses_anonymous_args = 0
 321:Middlewares/ST/BlueNRG-MS/hci/controller/bluenrg_gatt_aci.c ****   struct hci_request rq;
 853              		.loc 1 321 3 view .LVU290
 322:Middlewares/ST/BlueNRG-MS/hci/controller/bluenrg_gatt_aci.c ****   uint8_t status;
 854              		.loc 1 322 3 view .LVU291
 323:Middlewares/ST/BlueNRG-MS/hci/controller/bluenrg_gatt_aci.c ****   uint8_t buffer[HCI_MAX_PAYLOAD_SIZE];
 855              		.loc 1 323 3 view .LVU292
 324:Middlewares/ST/BlueNRG-MS/hci/controller/bluenrg_gatt_aci.c ****   uint8_t indx = 0;
 856              		.loc 1 324 3 view .LVU293
 325:Middlewares/ST/BlueNRG-MS/hci/controller/bluenrg_gatt_aci.c ****     
 326:Middlewares/ST/BlueNRG-MS/hci/controller/bluenrg_gatt_aci.c ****   if ((charValueLen+6) > HCI_MAX_PAYLOAD_SIZE)
 857              		.loc 1 326 3 view .LVU294
 858              		.loc 1 326 6 is_stmt 0 view .LVU295
 859 0000 7A2B     		cmp	r3, #122
 860 0002 31D8     		bhi	.L36
 320:Middlewares/ST/BlueNRG-MS/hci/controller/bluenrg_gatt_aci.c ****   struct hci_request rq;
 861              		.loc 1 320 1 view .LVU296
 862 0004 10B5     		push	{r4, lr}
 863              	.LCFI20:
 864              		.cfi_def_cfa_offset 8
 865              		.cfi_offset 4, -8
 866              		.cfi_offset 14, -4
 867 0006 A8B0     		sub	sp, sp, #160
 868              	.LCFI21:
 869              		.cfi_def_cfa_offset 168
 870 0008 1C46     		mov	r4, r3
 327:Middlewares/ST/BlueNRG-MS/hci/controller/bluenrg_gatt_aci.c ****     return BLE_STATUS_INVALID_PARAMS;
ARM GAS  /tmp/cc8W75dr.s 			page 22


 328:Middlewares/ST/BlueNRG-MS/hci/controller/bluenrg_gatt_aci.c **** 
 329:Middlewares/ST/BlueNRG-MS/hci/controller/bluenrg_gatt_aci.c ****   servHandle = htobs(servHandle);
 871              		.loc 1 329 3 is_stmt 1 view .LVU297
 330:Middlewares/ST/BlueNRG-MS/hci/controller/bluenrg_gatt_aci.c ****   BLUENRG_memcpy(buffer + indx, &servHandle, 2);
 872              		.loc 1 330 3 view .LVU298
 873 000a ADF80400 		strh	r0, [sp, #4]	@ movhi
 331:Middlewares/ST/BlueNRG-MS/hci/controller/bluenrg_gatt_aci.c ****   indx += 2;
 874              		.loc 1 331 3 view .LVU299
 875              	.LVL82:
 332:Middlewares/ST/BlueNRG-MS/hci/controller/bluenrg_gatt_aci.c ****     
 333:Middlewares/ST/BlueNRG-MS/hci/controller/bluenrg_gatt_aci.c ****   charHandle = htobs(charHandle);
 876              		.loc 1 333 3 view .LVU300
 334:Middlewares/ST/BlueNRG-MS/hci/controller/bluenrg_gatt_aci.c ****   BLUENRG_memcpy(buffer + indx, &charHandle, 2);
 877              		.loc 1 334 3 view .LVU301
 878 000e ADF80610 		strh	r1, [sp, #6]	@ movhi
 335:Middlewares/ST/BlueNRG-MS/hci/controller/bluenrg_gatt_aci.c ****   indx += 2;
 879              		.loc 1 335 3 view .LVU302
 880              	.LVL83:
 336:Middlewares/ST/BlueNRG-MS/hci/controller/bluenrg_gatt_aci.c ****     
 337:Middlewares/ST/BlueNRG-MS/hci/controller/bluenrg_gatt_aci.c ****   buffer[indx] = charValOffset;
 881              		.loc 1 337 3 view .LVU303
 882              		.loc 1 337 16 is_stmt 0 view .LVU304
 883 0012 8DF80820 		strb	r2, [sp, #8]
 338:Middlewares/ST/BlueNRG-MS/hci/controller/bluenrg_gatt_aci.c ****   indx++;
 884              		.loc 1 338 3 is_stmt 1 view .LVU305
 885              	.LVL84:
 339:Middlewares/ST/BlueNRG-MS/hci/controller/bluenrg_gatt_aci.c ****     
 340:Middlewares/ST/BlueNRG-MS/hci/controller/bluenrg_gatt_aci.c ****   buffer[indx] = charValueLen;
 886              		.loc 1 340 3 view .LVU306
 887              		.loc 1 340 16 is_stmt 0 view .LVU307
 888 0016 8DF80930 		strb	r3, [sp, #9]
 341:Middlewares/ST/BlueNRG-MS/hci/controller/bluenrg_gatt_aci.c ****   indx++;
 889              		.loc 1 341 3 is_stmt 1 view .LVU308
 890              	.LVL85:
 342:Middlewares/ST/BlueNRG-MS/hci/controller/bluenrg_gatt_aci.c ****         
 343:Middlewares/ST/BlueNRG-MS/hci/controller/bluenrg_gatt_aci.c ****   BLUENRG_memcpy(buffer + indx, charValue, charValueLen);
 891              		.loc 1 343 3 view .LVU309
 892 001a 1A46     		mov	r2, r3
 893              	.LVL86:
 894              		.loc 1 343 3 is_stmt 0 view .LVU310
 895 001c 2A99     		ldr	r1, [sp, #168]
 896              	.LVL87:
 897              		.loc 1 343 3 view .LVU311
 898 001e 0DF10A00 		add	r0, sp, #10
 899              	.LVL88:
 900              		.loc 1 343 3 view .LVU312
 901 0022 FFF7FEFF 		bl	memcpy
 902              	.LVL89:
 344:Middlewares/ST/BlueNRG-MS/hci/controller/bluenrg_gatt_aci.c ****   indx +=  charValueLen;
 903              		.loc 1 344 3 is_stmt 1 view .LVU313
 904              		.loc 1 344 8 is_stmt 0 view .LVU314
 905 0026 0634     		adds	r4, r4, #6
 906 0028 E4B2     		uxtb	r4, r4
 907              	.LVL90:
 345:Middlewares/ST/BlueNRG-MS/hci/controller/bluenrg_gatt_aci.c **** 
 346:Middlewares/ST/BlueNRG-MS/hci/controller/bluenrg_gatt_aci.c ****   BLUENRG_memset(&rq, 0, sizeof(rq));
 908              		.loc 1 346 3 is_stmt 1 view .LVU315
ARM GAS  /tmp/cc8W75dr.s 			page 23


 909 002a 0021     		movs	r1, #0
 910 002c 2291     		str	r1, [sp, #136]
 911 002e 2391     		str	r1, [sp, #140]
 912 0030 2491     		str	r1, [sp, #144]
 913 0032 2591     		str	r1, [sp, #148]
 914 0034 2691     		str	r1, [sp, #152]
 915 0036 2791     		str	r1, [sp, #156]
 347:Middlewares/ST/BlueNRG-MS/hci/controller/bluenrg_gatt_aci.c ****   rq.ogf = OGF_VENDOR_CMD;
 916              		.loc 1 347 3 view .LVU316
 917              		.loc 1 347 10 is_stmt 0 view .LVU317
 918 0038 3F23     		movs	r3, #63
 919 003a ADF88830 		strh	r3, [sp, #136]	@ movhi
 348:Middlewares/ST/BlueNRG-MS/hci/controller/bluenrg_gatt_aci.c ****   rq.ocf = OCF_GATT_UPD_CHAR_VAL;
 920              		.loc 1 348 3 is_stmt 1 view .LVU318
 921              		.loc 1 348 10 is_stmt 0 view .LVU319
 922 003e 4FF48373 		mov	r3, #262
 923 0042 ADF88A30 		strh	r3, [sp, #138]	@ movhi
 349:Middlewares/ST/BlueNRG-MS/hci/controller/bluenrg_gatt_aci.c ****   rq.cparam = (void *)buffer;
 924              		.loc 1 349 3 is_stmt 1 view .LVU320
 925              		.loc 1 349 13 is_stmt 0 view .LVU321
 926 0046 01AB     		add	r3, sp, #4
 927 0048 2493     		str	r3, [sp, #144]
 350:Middlewares/ST/BlueNRG-MS/hci/controller/bluenrg_gatt_aci.c ****   rq.clen = indx;
 928              		.loc 1 350 3 is_stmt 1 view .LVU322
 929              		.loc 1 350 11 is_stmt 0 view .LVU323
 930 004a 2594     		str	r4, [sp, #148]
 351:Middlewares/ST/BlueNRG-MS/hci/controller/bluenrg_gatt_aci.c ****   rq.rparam = &status;
 931              		.loc 1 351 3 is_stmt 1 view .LVU324
 932              		.loc 1 351 13 is_stmt 0 view .LVU325
 933 004c 0DF18703 		add	r3, sp, #135
 934 0050 2693     		str	r3, [sp, #152]
 352:Middlewares/ST/BlueNRG-MS/hci/controller/bluenrg_gatt_aci.c ****   rq.rlen = 1;
 935              		.loc 1 352 3 is_stmt 1 view .LVU326
 936              		.loc 1 352 11 is_stmt 0 view .LVU327
 937 0052 0123     		movs	r3, #1
 938 0054 2793     		str	r3, [sp, #156]
 353:Middlewares/ST/BlueNRG-MS/hci/controller/bluenrg_gatt_aci.c **** 
 354:Middlewares/ST/BlueNRG-MS/hci/controller/bluenrg_gatt_aci.c ****   if (hci_send_req(&rq, FALSE) < 0)
 939              		.loc 1 354 3 is_stmt 1 view .LVU328
 940              		.loc 1 354 7 is_stmt 0 view .LVU329
 941 0056 22A8     		add	r0, sp, #136
 942 0058 FFF7FEFF 		bl	hci_send_req
 943              	.LVL91:
 944              		.loc 1 354 6 view .LVU330
 945 005c 0028     		cmp	r0, #0
 946 005e 05DB     		blt	.L37
 355:Middlewares/ST/BlueNRG-MS/hci/controller/bluenrg_gatt_aci.c ****     return BLE_STATUS_TIMEOUT;
 356:Middlewares/ST/BlueNRG-MS/hci/controller/bluenrg_gatt_aci.c **** 
 357:Middlewares/ST/BlueNRG-MS/hci/controller/bluenrg_gatt_aci.c ****   if (status) {
 947              		.loc 1 357 3 is_stmt 1 view .LVU331
 948              		.loc 1 357 7 is_stmt 0 view .LVU332
 949 0060 9DF88700 		ldrb	r0, [sp, #135]	@ zero_extendqisi2
 950              	.L35:
 358:Middlewares/ST/BlueNRG-MS/hci/controller/bluenrg_gatt_aci.c ****     return status;
 359:Middlewares/ST/BlueNRG-MS/hci/controller/bluenrg_gatt_aci.c ****   }
 360:Middlewares/ST/BlueNRG-MS/hci/controller/bluenrg_gatt_aci.c **** 
 361:Middlewares/ST/BlueNRG-MS/hci/controller/bluenrg_gatt_aci.c ****   return 0;
ARM GAS  /tmp/cc8W75dr.s 			page 24


 362:Middlewares/ST/BlueNRG-MS/hci/controller/bluenrg_gatt_aci.c **** }
 951              		.loc 1 362 1 view .LVU333
 952 0064 28B0     		add	sp, sp, #160
 953              	.LCFI22:
 954              		.cfi_def_cfa_offset 8
 955              		@ sp needed
 956 0066 10BD     		pop	{r4, pc}
 957              	.LVL92:
 958              	.L36:
 959              	.LCFI23:
 960              		.cfi_def_cfa_offset 0
 961              		.cfi_restore 4
 962              		.cfi_restore 14
 327:Middlewares/ST/BlueNRG-MS/hci/controller/bluenrg_gatt_aci.c **** 
 963              		.loc 1 327 12 view .LVU334
 964 0068 4220     		movs	r0, #66
 965              	.LVL93:
 966              		.loc 1 362 1 view .LVU335
 967 006a 7047     		bx	lr
 968              	.LVL94:
 969              	.L37:
 970              	.LCFI24:
 971              		.cfi_def_cfa_offset 168
 972              		.cfi_offset 4, -8
 973              		.cfi_offset 14, -4
 355:Middlewares/ST/BlueNRG-MS/hci/controller/bluenrg_gatt_aci.c ****     return BLE_STATUS_TIMEOUT;
 974              		.loc 1 355 12 view .LVU336
 975 006c FF20     		movs	r0, #255
 976 006e F9E7     		b	.L35
 977              		.cfi_endproc
 978              	.LFE297:
 980              		.section	.text.aci_gatt_del_char,"ax",%progbits
 981              		.align	1
 982              		.global	aci_gatt_del_char
 983              		.syntax unified
 984              		.thumb
 985              		.thumb_func
 987              	aci_gatt_del_char:
 988              	.LVL95:
 989              	.LFB298:
 363:Middlewares/ST/BlueNRG-MS/hci/controller/bluenrg_gatt_aci.c **** 
 364:Middlewares/ST/BlueNRG-MS/hci/controller/bluenrg_gatt_aci.c **** tBleStatus aci_gatt_del_char(uint16_t servHandle, uint16_t charHandle)
 365:Middlewares/ST/BlueNRG-MS/hci/controller/bluenrg_gatt_aci.c **** {
 990              		.loc 1 365 1 is_stmt 1 view -0
 991              		.cfi_startproc
 992              		@ args = 0, pretend = 0, frame = 32
 993              		@ frame_needed = 0, uses_anonymous_args = 0
 994              		.loc 1 365 1 is_stmt 0 view .LVU338
 995 0000 00B5     		push	{lr}
 996              	.LCFI25:
 997              		.cfi_def_cfa_offset 4
 998              		.cfi_offset 14, -4
 999 0002 89B0     		sub	sp, sp, #36
 1000              	.LCFI26:
 1001              		.cfi_def_cfa_offset 40
 366:Middlewares/ST/BlueNRG-MS/hci/controller/bluenrg_gatt_aci.c ****   struct hci_request rq;
 1002              		.loc 1 366 3 is_stmt 1 view .LVU339
ARM GAS  /tmp/cc8W75dr.s 			page 25


 367:Middlewares/ST/BlueNRG-MS/hci/controller/bluenrg_gatt_aci.c ****   uint8_t status;
 1003              		.loc 1 367 3 view .LVU340
 368:Middlewares/ST/BlueNRG-MS/hci/controller/bluenrg_gatt_aci.c ****   gatt_del_char_cp cp;
 1004              		.loc 1 368 3 view .LVU341
 369:Middlewares/ST/BlueNRG-MS/hci/controller/bluenrg_gatt_aci.c **** 
 370:Middlewares/ST/BlueNRG-MS/hci/controller/bluenrg_gatt_aci.c ****   cp.service_handle = htobs(servHandle);
 1005              		.loc 1 370 3 view .LVU342
 1006              		.loc 1 370 21 is_stmt 0 view .LVU343
 1007 0004 ADF80000 		strh	r0, [sp]	@ movhi
 371:Middlewares/ST/BlueNRG-MS/hci/controller/bluenrg_gatt_aci.c ****   cp.char_handle = htobs(charHandle);
 1008              		.loc 1 371 3 is_stmt 1 view .LVU344
 1009              		.loc 1 371 18 is_stmt 0 view .LVU345
 1010 0008 ADF80210 		strh	r1, [sp, #2]	@ movhi
 372:Middlewares/ST/BlueNRG-MS/hci/controller/bluenrg_gatt_aci.c **** 
 373:Middlewares/ST/BlueNRG-MS/hci/controller/bluenrg_gatt_aci.c ****   BLUENRG_memset(&rq, 0, sizeof(rq));
 1011              		.loc 1 373 3 is_stmt 1 view .LVU346
 1012 000c 0021     		movs	r1, #0
 1013              	.LVL96:
 1014              		.loc 1 373 3 is_stmt 0 view .LVU347
 1015 000e 0291     		str	r1, [sp, #8]
 1016 0010 0391     		str	r1, [sp, #12]
 1017 0012 0491     		str	r1, [sp, #16]
 1018 0014 0591     		str	r1, [sp, #20]
 1019 0016 0691     		str	r1, [sp, #24]
 1020 0018 0791     		str	r1, [sp, #28]
 374:Middlewares/ST/BlueNRG-MS/hci/controller/bluenrg_gatt_aci.c ****   rq.ogf = OGF_VENDOR_CMD;
 1021              		.loc 1 374 3 is_stmt 1 view .LVU348
 1022              		.loc 1 374 10 is_stmt 0 view .LVU349
 1023 001a 3F23     		movs	r3, #63
 1024 001c ADF80830 		strh	r3, [sp, #8]	@ movhi
 375:Middlewares/ST/BlueNRG-MS/hci/controller/bluenrg_gatt_aci.c ****   rq.ocf = OCF_GATT_DEL_CHAR;
 1025              		.loc 1 375 3 is_stmt 1 view .LVU350
 1026              		.loc 1 375 10 is_stmt 0 view .LVU351
 1027 0020 40F20713 		movw	r3, #263
 1028 0024 ADF80A30 		strh	r3, [sp, #10]	@ movhi
 376:Middlewares/ST/BlueNRG-MS/hci/controller/bluenrg_gatt_aci.c ****   rq.cparam = &cp;
 1029              		.loc 1 376 3 is_stmt 1 view .LVU352
 1030              		.loc 1 376 13 is_stmt 0 view .LVU353
 1031 0028 CDF810D0 		str	sp, [sp, #16]
 377:Middlewares/ST/BlueNRG-MS/hci/controller/bluenrg_gatt_aci.c ****   rq.clen = GATT_DEL_CHAR_CP_SIZE;
 1032              		.loc 1 377 3 is_stmt 1 view .LVU354
 1033              		.loc 1 377 11 is_stmt 0 view .LVU355
 1034 002c 0423     		movs	r3, #4
 1035 002e 0593     		str	r3, [sp, #20]
 378:Middlewares/ST/BlueNRG-MS/hci/controller/bluenrg_gatt_aci.c ****   rq.rparam = &status;
 1036              		.loc 1 378 3 is_stmt 1 view .LVU356
 1037              		.loc 1 378 13 is_stmt 0 view .LVU357
 1038 0030 0DF10703 		add	r3, sp, #7
 1039 0034 0693     		str	r3, [sp, #24]
 379:Middlewares/ST/BlueNRG-MS/hci/controller/bluenrg_gatt_aci.c ****   rq.rlen = 1;
 1040              		.loc 1 379 3 is_stmt 1 view .LVU358
 1041              		.loc 1 379 11 is_stmt 0 view .LVU359
 1042 0036 0123     		movs	r3, #1
 1043 0038 0793     		str	r3, [sp, #28]
 380:Middlewares/ST/BlueNRG-MS/hci/controller/bluenrg_gatt_aci.c **** 
 381:Middlewares/ST/BlueNRG-MS/hci/controller/bluenrg_gatt_aci.c ****   if (hci_send_req(&rq, FALSE) < 0)
 1044              		.loc 1 381 3 is_stmt 1 view .LVU360
ARM GAS  /tmp/cc8W75dr.s 			page 26


 1045              		.loc 1 381 7 is_stmt 0 view .LVU361
 1046 003a 02A8     		add	r0, sp, #8
 1047              	.LVL97:
 1048              		.loc 1 381 7 view .LVU362
 1049 003c FFF7FEFF 		bl	hci_send_req
 1050              	.LVL98:
 1051              		.loc 1 381 6 view .LVU363
 1052 0040 0028     		cmp	r0, #0
 1053 0042 04DB     		blt	.L44
 382:Middlewares/ST/BlueNRG-MS/hci/controller/bluenrg_gatt_aci.c ****     return BLE_STATUS_TIMEOUT;
 383:Middlewares/ST/BlueNRG-MS/hci/controller/bluenrg_gatt_aci.c **** 
 384:Middlewares/ST/BlueNRG-MS/hci/controller/bluenrg_gatt_aci.c ****   return status;
 1054              		.loc 1 384 3 is_stmt 1 view .LVU364
 1055              		.loc 1 384 10 is_stmt 0 view .LVU365
 1056 0044 9DF80700 		ldrb	r0, [sp, #7]	@ zero_extendqisi2
 1057              	.L43:
 385:Middlewares/ST/BlueNRG-MS/hci/controller/bluenrg_gatt_aci.c **** }
 1058              		.loc 1 385 1 view .LVU366
 1059 0048 09B0     		add	sp, sp, #36
 1060              	.LCFI27:
 1061              		.cfi_remember_state
 1062              		.cfi_def_cfa_offset 4
 1063              		@ sp needed
 1064 004a 5DF804FB 		ldr	pc, [sp], #4
 1065              	.L44:
 1066              	.LCFI28:
 1067              		.cfi_restore_state
 382:Middlewares/ST/BlueNRG-MS/hci/controller/bluenrg_gatt_aci.c ****     return BLE_STATUS_TIMEOUT;
 1068              		.loc 1 382 12 view .LVU367
 1069 004e FF20     		movs	r0, #255
 1070 0050 FAE7     		b	.L43
 1071              		.cfi_endproc
 1072              	.LFE298:
 1074              		.section	.text.aci_gatt_del_service,"ax",%progbits
 1075              		.align	1
 1076              		.global	aci_gatt_del_service
 1077              		.syntax unified
 1078              		.thumb
 1079              		.thumb_func
 1081              	aci_gatt_del_service:
 1082              	.LVL99:
 1083              	.LFB299:
 386:Middlewares/ST/BlueNRG-MS/hci/controller/bluenrg_gatt_aci.c ****                                       
 387:Middlewares/ST/BlueNRG-MS/hci/controller/bluenrg_gatt_aci.c **** tBleStatus aci_gatt_del_service(uint16_t servHandle)
 388:Middlewares/ST/BlueNRG-MS/hci/controller/bluenrg_gatt_aci.c **** {
 1084              		.loc 1 388 1 is_stmt 1 view -0
 1085              		.cfi_startproc
 1086              		@ args = 0, pretend = 0, frame = 32
 1087              		@ frame_needed = 0, uses_anonymous_args = 0
 1088              		.loc 1 388 1 is_stmt 0 view .LVU369
 1089 0000 00B5     		push	{lr}
 1090              	.LCFI29:
 1091              		.cfi_def_cfa_offset 4
 1092              		.cfi_offset 14, -4
 1093 0002 89B0     		sub	sp, sp, #36
 1094              	.LCFI30:
 1095              		.cfi_def_cfa_offset 40
ARM GAS  /tmp/cc8W75dr.s 			page 27


 389:Middlewares/ST/BlueNRG-MS/hci/controller/bluenrg_gatt_aci.c ****   struct hci_request rq;
 1096              		.loc 1 389 3 is_stmt 1 view .LVU370
 390:Middlewares/ST/BlueNRG-MS/hci/controller/bluenrg_gatt_aci.c ****   uint8_t status;
 1097              		.loc 1 390 3 view .LVU371
 391:Middlewares/ST/BlueNRG-MS/hci/controller/bluenrg_gatt_aci.c ****   gatt_del_serv_cp cp;
 1098              		.loc 1 391 3 view .LVU372
 392:Middlewares/ST/BlueNRG-MS/hci/controller/bluenrg_gatt_aci.c **** 
 393:Middlewares/ST/BlueNRG-MS/hci/controller/bluenrg_gatt_aci.c ****   cp.service_handle = htobs(servHandle);
 1099              		.loc 1 393 3 view .LVU373
 1100              		.loc 1 393 21 is_stmt 0 view .LVU374
 1101 0004 ADF80400 		strh	r0, [sp, #4]	@ movhi
 394:Middlewares/ST/BlueNRG-MS/hci/controller/bluenrg_gatt_aci.c **** 
 395:Middlewares/ST/BlueNRG-MS/hci/controller/bluenrg_gatt_aci.c ****   BLUENRG_memset(&rq, 0, sizeof(rq));
 1102              		.loc 1 395 3 is_stmt 1 view .LVU375
 1103 0008 0021     		movs	r1, #0
 1104 000a 0291     		str	r1, [sp, #8]
 1105 000c 0391     		str	r1, [sp, #12]
 1106 000e 0491     		str	r1, [sp, #16]
 1107 0010 0591     		str	r1, [sp, #20]
 1108 0012 0691     		str	r1, [sp, #24]
 1109 0014 0791     		str	r1, [sp, #28]
 396:Middlewares/ST/BlueNRG-MS/hci/controller/bluenrg_gatt_aci.c ****   rq.ogf = OGF_VENDOR_CMD;
 1110              		.loc 1 396 3 view .LVU376
 1111              		.loc 1 396 10 is_stmt 0 view .LVU377
 1112 0016 3F23     		movs	r3, #63
 1113 0018 ADF80830 		strh	r3, [sp, #8]	@ movhi
 397:Middlewares/ST/BlueNRG-MS/hci/controller/bluenrg_gatt_aci.c ****   rq.ocf = OCF_GATT_DEL_SERV;
 1114              		.loc 1 397 3 is_stmt 1 view .LVU378
 1115              		.loc 1 397 10 is_stmt 0 view .LVU379
 1116 001c 4FF48473 		mov	r3, #264
 1117 0020 ADF80A30 		strh	r3, [sp, #10]	@ movhi
 398:Middlewares/ST/BlueNRG-MS/hci/controller/bluenrg_gatt_aci.c ****   rq.cparam = &cp;
 1118              		.loc 1 398 3 is_stmt 1 view .LVU380
 1119              		.loc 1 398 13 is_stmt 0 view .LVU381
 1120 0024 01AB     		add	r3, sp, #4
 1121 0026 0493     		str	r3, [sp, #16]
 399:Middlewares/ST/BlueNRG-MS/hci/controller/bluenrg_gatt_aci.c ****   rq.clen = GATT_DEL_SERV_CP_SIZE;
 1122              		.loc 1 399 3 is_stmt 1 view .LVU382
 1123              		.loc 1 399 11 is_stmt 0 view .LVU383
 1124 0028 0223     		movs	r3, #2
 1125 002a 0593     		str	r3, [sp, #20]
 400:Middlewares/ST/BlueNRG-MS/hci/controller/bluenrg_gatt_aci.c ****   rq.rparam = &status;
 1126              		.loc 1 400 3 is_stmt 1 view .LVU384
 1127              		.loc 1 400 13 is_stmt 0 view .LVU385
 1128 002c 0DF10703 		add	r3, sp, #7
 1129 0030 0693     		str	r3, [sp, #24]
 401:Middlewares/ST/BlueNRG-MS/hci/controller/bluenrg_gatt_aci.c ****   rq.rlen = 1;
 1130              		.loc 1 401 3 is_stmt 1 view .LVU386
 1131              		.loc 1 401 11 is_stmt 0 view .LVU387
 1132 0032 0123     		movs	r3, #1
 1133 0034 0793     		str	r3, [sp, #28]
 402:Middlewares/ST/BlueNRG-MS/hci/controller/bluenrg_gatt_aci.c **** 
 403:Middlewares/ST/BlueNRG-MS/hci/controller/bluenrg_gatt_aci.c ****   if (hci_send_req(&rq, FALSE) < 0)
 1134              		.loc 1 403 3 is_stmt 1 view .LVU388
 1135              		.loc 1 403 7 is_stmt 0 view .LVU389
 1136 0036 02A8     		add	r0, sp, #8
 1137              	.LVL100:
ARM GAS  /tmp/cc8W75dr.s 			page 28


 1138              		.loc 1 403 7 view .LVU390
 1139 0038 FFF7FEFF 		bl	hci_send_req
 1140              	.LVL101:
 1141              		.loc 1 403 6 view .LVU391
 1142 003c 0028     		cmp	r0, #0
 1143 003e 04DB     		blt	.L48
 404:Middlewares/ST/BlueNRG-MS/hci/controller/bluenrg_gatt_aci.c ****     return BLE_STATUS_TIMEOUT;
 405:Middlewares/ST/BlueNRG-MS/hci/controller/bluenrg_gatt_aci.c **** 
 406:Middlewares/ST/BlueNRG-MS/hci/controller/bluenrg_gatt_aci.c ****   return status;
 1144              		.loc 1 406 3 is_stmt 1 view .LVU392
 1145              		.loc 1 406 10 is_stmt 0 view .LVU393
 1146 0040 9DF80700 		ldrb	r0, [sp, #7]	@ zero_extendqisi2
 1147              	.L47:
 407:Middlewares/ST/BlueNRG-MS/hci/controller/bluenrg_gatt_aci.c **** }
 1148              		.loc 1 407 1 view .LVU394
 1149 0044 09B0     		add	sp, sp, #36
 1150              	.LCFI31:
 1151              		.cfi_remember_state
 1152              		.cfi_def_cfa_offset 4
 1153              		@ sp needed
 1154 0046 5DF804FB 		ldr	pc, [sp], #4
 1155              	.L48:
 1156              	.LCFI32:
 1157              		.cfi_restore_state
 404:Middlewares/ST/BlueNRG-MS/hci/controller/bluenrg_gatt_aci.c ****     return BLE_STATUS_TIMEOUT;
 1158              		.loc 1 404 12 view .LVU395
 1159 004a FF20     		movs	r0, #255
 1160 004c FAE7     		b	.L47
 1161              		.cfi_endproc
 1162              	.LFE299:
 1164              		.section	.text.aci_gatt_del_include_service,"ax",%progbits
 1165              		.align	1
 1166              		.global	aci_gatt_del_include_service
 1167              		.syntax unified
 1168              		.thumb
 1169              		.thumb_func
 1171              	aci_gatt_del_include_service:
 1172              	.LVL102:
 1173              	.LFB300:
 408:Middlewares/ST/BlueNRG-MS/hci/controller/bluenrg_gatt_aci.c **** 
 409:Middlewares/ST/BlueNRG-MS/hci/controller/bluenrg_gatt_aci.c **** tBleStatus aci_gatt_del_include_service(uint16_t servHandle, uint16_t includeServHandle)
 410:Middlewares/ST/BlueNRG-MS/hci/controller/bluenrg_gatt_aci.c **** {
 1174              		.loc 1 410 1 is_stmt 1 view -0
 1175              		.cfi_startproc
 1176              		@ args = 0, pretend = 0, frame = 32
 1177              		@ frame_needed = 0, uses_anonymous_args = 0
 1178              		.loc 1 410 1 is_stmt 0 view .LVU397
 1179 0000 00B5     		push	{lr}
 1180              	.LCFI33:
 1181              		.cfi_def_cfa_offset 4
 1182              		.cfi_offset 14, -4
 1183 0002 89B0     		sub	sp, sp, #36
 1184              	.LCFI34:
 1185              		.cfi_def_cfa_offset 40
 411:Middlewares/ST/BlueNRG-MS/hci/controller/bluenrg_gatt_aci.c ****   struct hci_request rq;
 1186              		.loc 1 411 3 is_stmt 1 view .LVU398
 412:Middlewares/ST/BlueNRG-MS/hci/controller/bluenrg_gatt_aci.c ****   uint8_t status;
ARM GAS  /tmp/cc8W75dr.s 			page 29


 1187              		.loc 1 412 3 view .LVU399
 413:Middlewares/ST/BlueNRG-MS/hci/controller/bluenrg_gatt_aci.c ****   gatt_del_inc_serv_cp cp;
 1188              		.loc 1 413 3 view .LVU400
 414:Middlewares/ST/BlueNRG-MS/hci/controller/bluenrg_gatt_aci.c **** 
 415:Middlewares/ST/BlueNRG-MS/hci/controller/bluenrg_gatt_aci.c ****   cp.service_handle = htobs(servHandle);
 1189              		.loc 1 415 3 view .LVU401
 1190              		.loc 1 415 21 is_stmt 0 view .LVU402
 1191 0004 ADF80000 		strh	r0, [sp]	@ movhi
 416:Middlewares/ST/BlueNRG-MS/hci/controller/bluenrg_gatt_aci.c ****   cp.inc_serv_handle = htobs(includeServHandle);
 1192              		.loc 1 416 3 is_stmt 1 view .LVU403
 1193              		.loc 1 416 22 is_stmt 0 view .LVU404
 1194 0008 ADF80210 		strh	r1, [sp, #2]	@ movhi
 417:Middlewares/ST/BlueNRG-MS/hci/controller/bluenrg_gatt_aci.c **** 
 418:Middlewares/ST/BlueNRG-MS/hci/controller/bluenrg_gatt_aci.c ****   BLUENRG_memset(&rq, 0, sizeof(rq));
 1195              		.loc 1 418 3 is_stmt 1 view .LVU405
 1196 000c 0021     		movs	r1, #0
 1197              	.LVL103:
 1198              		.loc 1 418 3 is_stmt 0 view .LVU406
 1199 000e 0291     		str	r1, [sp, #8]
 1200 0010 0391     		str	r1, [sp, #12]
 1201 0012 0491     		str	r1, [sp, #16]
 1202 0014 0591     		str	r1, [sp, #20]
 1203 0016 0691     		str	r1, [sp, #24]
 1204 0018 0791     		str	r1, [sp, #28]
 419:Middlewares/ST/BlueNRG-MS/hci/controller/bluenrg_gatt_aci.c ****   rq.ogf = OGF_VENDOR_CMD;
 1205              		.loc 1 419 3 is_stmt 1 view .LVU407
 1206              		.loc 1 419 10 is_stmt 0 view .LVU408
 1207 001a 3F23     		movs	r3, #63
 1208 001c ADF80830 		strh	r3, [sp, #8]	@ movhi
 420:Middlewares/ST/BlueNRG-MS/hci/controller/bluenrg_gatt_aci.c ****   rq.ocf = OCF_GATT_DEL_INC_SERV;
 1209              		.loc 1 420 3 is_stmt 1 view .LVU409
 1210              		.loc 1 420 10 is_stmt 0 view .LVU410
 1211 0020 40F20913 		movw	r3, #265
 1212 0024 ADF80A30 		strh	r3, [sp, #10]	@ movhi
 421:Middlewares/ST/BlueNRG-MS/hci/controller/bluenrg_gatt_aci.c ****   rq.cparam = &cp;
 1213              		.loc 1 421 3 is_stmt 1 view .LVU411
 1214              		.loc 1 421 13 is_stmt 0 view .LVU412
 1215 0028 CDF810D0 		str	sp, [sp, #16]
 422:Middlewares/ST/BlueNRG-MS/hci/controller/bluenrg_gatt_aci.c ****   rq.clen = GATT_DEL_INC_SERV_CP_SIZE;
 1216              		.loc 1 422 3 is_stmt 1 view .LVU413
 1217              		.loc 1 422 11 is_stmt 0 view .LVU414
 1218 002c 0423     		movs	r3, #4
 1219 002e 0593     		str	r3, [sp, #20]
 423:Middlewares/ST/BlueNRG-MS/hci/controller/bluenrg_gatt_aci.c ****   rq.rparam = &status;
 1220              		.loc 1 423 3 is_stmt 1 view .LVU415
 1221              		.loc 1 423 13 is_stmt 0 view .LVU416
 1222 0030 0DF10703 		add	r3, sp, #7
 1223 0034 0693     		str	r3, [sp, #24]
 424:Middlewares/ST/BlueNRG-MS/hci/controller/bluenrg_gatt_aci.c ****   rq.rlen = 1;
 1224              		.loc 1 424 3 is_stmt 1 view .LVU417
 1225              		.loc 1 424 11 is_stmt 0 view .LVU418
 1226 0036 0123     		movs	r3, #1
 1227 0038 0793     		str	r3, [sp, #28]
 425:Middlewares/ST/BlueNRG-MS/hci/controller/bluenrg_gatt_aci.c **** 
 426:Middlewares/ST/BlueNRG-MS/hci/controller/bluenrg_gatt_aci.c ****   if (hci_send_req(&rq, FALSE) < 0)
 1228              		.loc 1 426 3 is_stmt 1 view .LVU419
 1229              		.loc 1 426 7 is_stmt 0 view .LVU420
ARM GAS  /tmp/cc8W75dr.s 			page 30


 1230 003a 02A8     		add	r0, sp, #8
 1231              	.LVL104:
 1232              		.loc 1 426 7 view .LVU421
 1233 003c FFF7FEFF 		bl	hci_send_req
 1234              	.LVL105:
 1235              		.loc 1 426 6 view .LVU422
 1236 0040 0028     		cmp	r0, #0
 1237 0042 04DB     		blt	.L52
 427:Middlewares/ST/BlueNRG-MS/hci/controller/bluenrg_gatt_aci.c ****     return BLE_STATUS_TIMEOUT;
 428:Middlewares/ST/BlueNRG-MS/hci/controller/bluenrg_gatt_aci.c **** 
 429:Middlewares/ST/BlueNRG-MS/hci/controller/bluenrg_gatt_aci.c ****   return status;
 1238              		.loc 1 429 3 is_stmt 1 view .LVU423
 1239              		.loc 1 429 10 is_stmt 0 view .LVU424
 1240 0044 9DF80700 		ldrb	r0, [sp, #7]	@ zero_extendqisi2
 1241              	.L51:
 430:Middlewares/ST/BlueNRG-MS/hci/controller/bluenrg_gatt_aci.c **** }
 1242              		.loc 1 430 1 view .LVU425
 1243 0048 09B0     		add	sp, sp, #36
 1244              	.LCFI35:
 1245              		.cfi_remember_state
 1246              		.cfi_def_cfa_offset 4
 1247              		@ sp needed
 1248 004a 5DF804FB 		ldr	pc, [sp], #4
 1249              	.L52:
 1250              	.LCFI36:
 1251              		.cfi_restore_state
 427:Middlewares/ST/BlueNRG-MS/hci/controller/bluenrg_gatt_aci.c ****     return BLE_STATUS_TIMEOUT;
 1252              		.loc 1 427 12 view .LVU426
 1253 004e FF20     		movs	r0, #255
 1254 0050 FAE7     		b	.L51
 1255              		.cfi_endproc
 1256              	.LFE300:
 1258              		.section	.text.aci_gatt_set_event_mask,"ax",%progbits
 1259              		.align	1
 1260              		.global	aci_gatt_set_event_mask
 1261              		.syntax unified
 1262              		.thumb
 1263              		.thumb_func
 1265              	aci_gatt_set_event_mask:
 1266              	.LVL106:
 1267              	.LFB301:
 431:Middlewares/ST/BlueNRG-MS/hci/controller/bluenrg_gatt_aci.c **** 
 432:Middlewares/ST/BlueNRG-MS/hci/controller/bluenrg_gatt_aci.c **** tBleStatus aci_gatt_set_event_mask(uint32_t event_mask)
 433:Middlewares/ST/BlueNRG-MS/hci/controller/bluenrg_gatt_aci.c **** {
 1268              		.loc 1 433 1 is_stmt 1 view -0
 1269              		.cfi_startproc
 1270              		@ args = 0, pretend = 0, frame = 32
 1271              		@ frame_needed = 0, uses_anonymous_args = 0
 1272              		.loc 1 433 1 is_stmt 0 view .LVU428
 1273 0000 00B5     		push	{lr}
 1274              	.LCFI37:
 1275              		.cfi_def_cfa_offset 4
 1276              		.cfi_offset 14, -4
 1277 0002 89B0     		sub	sp, sp, #36
 1278              	.LCFI38:
 1279              		.cfi_def_cfa_offset 40
 434:Middlewares/ST/BlueNRG-MS/hci/controller/bluenrg_gatt_aci.c ****   struct hci_request rq;
ARM GAS  /tmp/cc8W75dr.s 			page 31


 1280              		.loc 1 434 3 is_stmt 1 view .LVU429
 435:Middlewares/ST/BlueNRG-MS/hci/controller/bluenrg_gatt_aci.c ****   uint8_t status;
 1281              		.loc 1 435 3 view .LVU430
 436:Middlewares/ST/BlueNRG-MS/hci/controller/bluenrg_gatt_aci.c ****   gatt_set_evt_mask_cp cp;
 1282              		.loc 1 436 3 view .LVU431
 437:Middlewares/ST/BlueNRG-MS/hci/controller/bluenrg_gatt_aci.c **** 
 438:Middlewares/ST/BlueNRG-MS/hci/controller/bluenrg_gatt_aci.c ****   cp.evt_mask = htobs(event_mask);
 1283              		.loc 1 438 3 view .LVU432
 1284              		.loc 1 438 15 is_stmt 0 view .LVU433
 1285 0004 0090     		str	r0, [sp]
 439:Middlewares/ST/BlueNRG-MS/hci/controller/bluenrg_gatt_aci.c **** 
 440:Middlewares/ST/BlueNRG-MS/hci/controller/bluenrg_gatt_aci.c ****   BLUENRG_memset(&rq, 0, sizeof(rq));
 1286              		.loc 1 440 3 is_stmt 1 view .LVU434
 1287 0006 0021     		movs	r1, #0
 1288 0008 0291     		str	r1, [sp, #8]
 1289 000a 0391     		str	r1, [sp, #12]
 1290 000c 0491     		str	r1, [sp, #16]
 1291 000e 0591     		str	r1, [sp, #20]
 1292 0010 0691     		str	r1, [sp, #24]
 1293 0012 0791     		str	r1, [sp, #28]
 441:Middlewares/ST/BlueNRG-MS/hci/controller/bluenrg_gatt_aci.c ****   rq.ogf = OGF_VENDOR_CMD;
 1294              		.loc 1 441 3 view .LVU435
 1295              		.loc 1 441 10 is_stmt 0 view .LVU436
 1296 0014 3F23     		movs	r3, #63
 1297 0016 ADF80830 		strh	r3, [sp, #8]	@ movhi
 442:Middlewares/ST/BlueNRG-MS/hci/controller/bluenrg_gatt_aci.c ****   rq.ocf = OCF_GATT_SET_EVT_MASK;
 1298              		.loc 1 442 3 is_stmt 1 view .LVU437
 1299              		.loc 1 442 10 is_stmt 0 view .LVU438
 1300 001a 4FF48573 		mov	r3, #266
 1301 001e ADF80A30 		strh	r3, [sp, #10]	@ movhi
 443:Middlewares/ST/BlueNRG-MS/hci/controller/bluenrg_gatt_aci.c ****   rq.cparam = &cp;
 1302              		.loc 1 443 3 is_stmt 1 view .LVU439
 1303              		.loc 1 443 13 is_stmt 0 view .LVU440
 1304 0022 CDF810D0 		str	sp, [sp, #16]
 444:Middlewares/ST/BlueNRG-MS/hci/controller/bluenrg_gatt_aci.c ****   rq.clen = GATT_SET_EVT_MASK_CP_SIZE;
 1305              		.loc 1 444 3 is_stmt 1 view .LVU441
 1306              		.loc 1 444 11 is_stmt 0 view .LVU442
 1307 0026 0423     		movs	r3, #4
 1308 0028 0593     		str	r3, [sp, #20]
 445:Middlewares/ST/BlueNRG-MS/hci/controller/bluenrg_gatt_aci.c ****   rq.rparam = &status;
 1309              		.loc 1 445 3 is_stmt 1 view .LVU443
 1310              		.loc 1 445 13 is_stmt 0 view .LVU444
 1311 002a 0DF10703 		add	r3, sp, #7
 1312 002e 0693     		str	r3, [sp, #24]
 446:Middlewares/ST/BlueNRG-MS/hci/controller/bluenrg_gatt_aci.c ****   rq.rlen = 1;
 1313              		.loc 1 446 3 is_stmt 1 view .LVU445
 1314              		.loc 1 446 11 is_stmt 0 view .LVU446
 1315 0030 0123     		movs	r3, #1
 1316 0032 0793     		str	r3, [sp, #28]
 447:Middlewares/ST/BlueNRG-MS/hci/controller/bluenrg_gatt_aci.c **** 
 448:Middlewares/ST/BlueNRG-MS/hci/controller/bluenrg_gatt_aci.c ****   if (hci_send_req(&rq, FALSE) < 0)
 1317              		.loc 1 448 3 is_stmt 1 view .LVU447
 1318              		.loc 1 448 7 is_stmt 0 view .LVU448
 1319 0034 02A8     		add	r0, sp, #8
 1320              	.LVL107:
 1321              		.loc 1 448 7 view .LVU449
 1322 0036 FFF7FEFF 		bl	hci_send_req
ARM GAS  /tmp/cc8W75dr.s 			page 32


 1323              	.LVL108:
 1324              		.loc 1 448 6 view .LVU450
 1325 003a 0028     		cmp	r0, #0
 1326 003c 04DB     		blt	.L56
 449:Middlewares/ST/BlueNRG-MS/hci/controller/bluenrg_gatt_aci.c ****     return BLE_STATUS_TIMEOUT;
 450:Middlewares/ST/BlueNRG-MS/hci/controller/bluenrg_gatt_aci.c **** 
 451:Middlewares/ST/BlueNRG-MS/hci/controller/bluenrg_gatt_aci.c ****   return status;
 1327              		.loc 1 451 3 is_stmt 1 view .LVU451
 1328              		.loc 1 451 10 is_stmt 0 view .LVU452
 1329 003e 9DF80700 		ldrb	r0, [sp, #7]	@ zero_extendqisi2
 1330              	.L55:
 452:Middlewares/ST/BlueNRG-MS/hci/controller/bluenrg_gatt_aci.c **** }
 1331              		.loc 1 452 1 view .LVU453
 1332 0042 09B0     		add	sp, sp, #36
 1333              	.LCFI39:
 1334              		.cfi_remember_state
 1335              		.cfi_def_cfa_offset 4
 1336              		@ sp needed
 1337 0044 5DF804FB 		ldr	pc, [sp], #4
 1338              	.L56:
 1339              	.LCFI40:
 1340              		.cfi_restore_state
 449:Middlewares/ST/BlueNRG-MS/hci/controller/bluenrg_gatt_aci.c ****     return BLE_STATUS_TIMEOUT;
 1341              		.loc 1 449 12 view .LVU454
 1342 0048 FF20     		movs	r0, #255
 1343 004a FAE7     		b	.L55
 1344              		.cfi_endproc
 1345              	.LFE301:
 1347              		.section	.text.aci_gatt_exchange_configuration,"ax",%progbits
 1348              		.align	1
 1349              		.global	aci_gatt_exchange_configuration
 1350              		.syntax unified
 1351              		.thumb
 1352              		.thumb_func
 1354              	aci_gatt_exchange_configuration:
 1355              	.LVL109:
 1356              	.LFB302:
 453:Middlewares/ST/BlueNRG-MS/hci/controller/bluenrg_gatt_aci.c ****   
 454:Middlewares/ST/BlueNRG-MS/hci/controller/bluenrg_gatt_aci.c **** tBleStatus aci_gatt_exchange_configuration(uint16_t conn_handle)
 455:Middlewares/ST/BlueNRG-MS/hci/controller/bluenrg_gatt_aci.c **** {
 1357              		.loc 1 455 1 is_stmt 1 view -0
 1358              		.cfi_startproc
 1359              		@ args = 0, pretend = 0, frame = 32
 1360              		@ frame_needed = 0, uses_anonymous_args = 0
 1361              		.loc 1 455 1 is_stmt 0 view .LVU456
 1362 0000 00B5     		push	{lr}
 1363              	.LCFI41:
 1364              		.cfi_def_cfa_offset 4
 1365              		.cfi_offset 14, -4
 1366 0002 89B0     		sub	sp, sp, #36
 1367              	.LCFI42:
 1368              		.cfi_def_cfa_offset 40
 456:Middlewares/ST/BlueNRG-MS/hci/controller/bluenrg_gatt_aci.c ****   struct hci_request rq;
 1369              		.loc 1 456 3 is_stmt 1 view .LVU457
 457:Middlewares/ST/BlueNRG-MS/hci/controller/bluenrg_gatt_aci.c ****   uint8_t status;
 1370              		.loc 1 457 3 view .LVU458
 458:Middlewares/ST/BlueNRG-MS/hci/controller/bluenrg_gatt_aci.c ****   gatt_exchange_config_cp cp;
ARM GAS  /tmp/cc8W75dr.s 			page 33


 1371              		.loc 1 458 3 view .LVU459
 459:Middlewares/ST/BlueNRG-MS/hci/controller/bluenrg_gatt_aci.c **** 
 460:Middlewares/ST/BlueNRG-MS/hci/controller/bluenrg_gatt_aci.c ****   cp.conn_handle = htobs(conn_handle);
 1372              		.loc 1 460 3 view .LVU460
 1373              		.loc 1 460 18 is_stmt 0 view .LVU461
 1374 0004 ADF80400 		strh	r0, [sp, #4]	@ movhi
 461:Middlewares/ST/BlueNRG-MS/hci/controller/bluenrg_gatt_aci.c **** 
 462:Middlewares/ST/BlueNRG-MS/hci/controller/bluenrg_gatt_aci.c ****   BLUENRG_memset(&rq, 0, sizeof(rq));
 1375              		.loc 1 462 3 is_stmt 1 view .LVU462
 1376 0008 0021     		movs	r1, #0
 1377 000a 0291     		str	r1, [sp, #8]
 1378 000c 0391     		str	r1, [sp, #12]
 1379 000e 0491     		str	r1, [sp, #16]
 1380 0010 0591     		str	r1, [sp, #20]
 1381 0012 0691     		str	r1, [sp, #24]
 1382 0014 0791     		str	r1, [sp, #28]
 463:Middlewares/ST/BlueNRG-MS/hci/controller/bluenrg_gatt_aci.c ****   rq.ogf = OGF_VENDOR_CMD;
 1383              		.loc 1 463 3 view .LVU463
 1384              		.loc 1 463 10 is_stmt 0 view .LVU464
 1385 0016 3F23     		movs	r3, #63
 1386 0018 ADF80830 		strh	r3, [sp, #8]	@ movhi
 464:Middlewares/ST/BlueNRG-MS/hci/controller/bluenrg_gatt_aci.c ****   rq.ocf = OCF_GATT_EXCHANGE_CONFIG;
 1387              		.loc 1 464 3 is_stmt 1 view .LVU465
 1388              		.loc 1 464 10 is_stmt 0 view .LVU466
 1389 001c 40F20B13 		movw	r3, #267
 1390 0020 ADF80A30 		strh	r3, [sp, #10]	@ movhi
 465:Middlewares/ST/BlueNRG-MS/hci/controller/bluenrg_gatt_aci.c ****   rq.cparam = &cp;
 1391              		.loc 1 465 3 is_stmt 1 view .LVU467
 1392              		.loc 1 465 13 is_stmt 0 view .LVU468
 1393 0024 01AB     		add	r3, sp, #4
 1394 0026 0493     		str	r3, [sp, #16]
 466:Middlewares/ST/BlueNRG-MS/hci/controller/bluenrg_gatt_aci.c ****   rq.clen = GATT_EXCHANGE_CONFIG_CP_SIZE;
 1395              		.loc 1 466 3 is_stmt 1 view .LVU469
 1396              		.loc 1 466 11 is_stmt 0 view .LVU470
 1397 0028 0223     		movs	r3, #2
 1398 002a 0593     		str	r3, [sp, #20]
 467:Middlewares/ST/BlueNRG-MS/hci/controller/bluenrg_gatt_aci.c ****   rq.event = EVT_CMD_STATUS; 
 1399              		.loc 1 467 3 is_stmt 1 view .LVU471
 1400              		.loc 1 467 12 is_stmt 0 view .LVU472
 1401 002c 0F23     		movs	r3, #15
 1402 002e 0393     		str	r3, [sp, #12]
 468:Middlewares/ST/BlueNRG-MS/hci/controller/bluenrg_gatt_aci.c ****   rq.rparam = &status;
 1403              		.loc 1 468 3 is_stmt 1 view .LVU473
 1404              		.loc 1 468 13 is_stmt 0 view .LVU474
 1405 0030 0DF10703 		add	r3, sp, #7
 1406 0034 0693     		str	r3, [sp, #24]
 469:Middlewares/ST/BlueNRG-MS/hci/controller/bluenrg_gatt_aci.c ****   rq.rlen = 1;
 1407              		.loc 1 469 3 is_stmt 1 view .LVU475
 1408              		.loc 1 469 11 is_stmt 0 view .LVU476
 1409 0036 0123     		movs	r3, #1
 1410 0038 0793     		str	r3, [sp, #28]
 470:Middlewares/ST/BlueNRG-MS/hci/controller/bluenrg_gatt_aci.c **** 
 471:Middlewares/ST/BlueNRG-MS/hci/controller/bluenrg_gatt_aci.c ****   if (hci_send_req(&rq, FALSE) < 0)
 1411              		.loc 1 471 3 is_stmt 1 view .LVU477
 1412              		.loc 1 471 7 is_stmt 0 view .LVU478
 1413 003a 02A8     		add	r0, sp, #8
 1414              	.LVL110:
ARM GAS  /tmp/cc8W75dr.s 			page 34


 1415              		.loc 1 471 7 view .LVU479
 1416 003c FFF7FEFF 		bl	hci_send_req
 1417              	.LVL111:
 1418              		.loc 1 471 6 view .LVU480
 1419 0040 0028     		cmp	r0, #0
 1420 0042 04DB     		blt	.L60
 472:Middlewares/ST/BlueNRG-MS/hci/controller/bluenrg_gatt_aci.c ****     return BLE_STATUS_TIMEOUT;
 473:Middlewares/ST/BlueNRG-MS/hci/controller/bluenrg_gatt_aci.c **** 
 474:Middlewares/ST/BlueNRG-MS/hci/controller/bluenrg_gatt_aci.c ****   return status;
 1421              		.loc 1 474 3 is_stmt 1 view .LVU481
 1422              		.loc 1 474 10 is_stmt 0 view .LVU482
 1423 0044 9DF80700 		ldrb	r0, [sp, #7]	@ zero_extendqisi2
 1424              	.L59:
 475:Middlewares/ST/BlueNRG-MS/hci/controller/bluenrg_gatt_aci.c **** }
 1425              		.loc 1 475 1 view .LVU483
 1426 0048 09B0     		add	sp, sp, #36
 1427              	.LCFI43:
 1428              		.cfi_remember_state
 1429              		.cfi_def_cfa_offset 4
 1430              		@ sp needed
 1431 004a 5DF804FB 		ldr	pc, [sp], #4
 1432              	.L60:
 1433              	.LCFI44:
 1434              		.cfi_restore_state
 472:Middlewares/ST/BlueNRG-MS/hci/controller/bluenrg_gatt_aci.c ****     return BLE_STATUS_TIMEOUT;
 1435              		.loc 1 472 12 view .LVU484
 1436 004e FF20     		movs	r0, #255
 1437 0050 FAE7     		b	.L59
 1438              		.cfi_endproc
 1439              	.LFE302:
 1441              		.section	.text.aci_att_find_information_req,"ax",%progbits
 1442              		.align	1
 1443              		.global	aci_att_find_information_req
 1444              		.syntax unified
 1445              		.thumb
 1446              		.thumb_func
 1448              	aci_att_find_information_req:
 1449              	.LVL112:
 1450              	.LFB303:
 476:Middlewares/ST/BlueNRG-MS/hci/controller/bluenrg_gatt_aci.c ****   
 477:Middlewares/ST/BlueNRG-MS/hci/controller/bluenrg_gatt_aci.c **** tBleStatus aci_att_find_information_req(uint16_t conn_handle, uint16_t start_handle, uint16_t end_h
 478:Middlewares/ST/BlueNRG-MS/hci/controller/bluenrg_gatt_aci.c **** {
 1451              		.loc 1 478 1 is_stmt 1 view -0
 1452              		.cfi_startproc
 1453              		@ args = 0, pretend = 0, frame = 32
 1454              		@ frame_needed = 0, uses_anonymous_args = 0
 1455              		.loc 1 478 1 is_stmt 0 view .LVU486
 1456 0000 00B5     		push	{lr}
 1457              	.LCFI45:
 1458              		.cfi_def_cfa_offset 4
 1459              		.cfi_offset 14, -4
 1460 0002 89B0     		sub	sp, sp, #36
 1461              	.LCFI46:
 1462              		.cfi_def_cfa_offset 40
 479:Middlewares/ST/BlueNRG-MS/hci/controller/bluenrg_gatt_aci.c ****   struct hci_request rq;
 1463              		.loc 1 479 3 is_stmt 1 view .LVU487
 480:Middlewares/ST/BlueNRG-MS/hci/controller/bluenrg_gatt_aci.c ****   uint8_t status;
ARM GAS  /tmp/cc8W75dr.s 			page 35


 1464              		.loc 1 480 3 view .LVU488
 481:Middlewares/ST/BlueNRG-MS/hci/controller/bluenrg_gatt_aci.c ****   att_find_info_req_cp cp;
 1465              		.loc 1 481 3 view .LVU489
 482:Middlewares/ST/BlueNRG-MS/hci/controller/bluenrg_gatt_aci.c **** 
 483:Middlewares/ST/BlueNRG-MS/hci/controller/bluenrg_gatt_aci.c ****   cp.conn_handle = htobs(conn_handle);
 1466              		.loc 1 483 3 view .LVU490
 1467              		.loc 1 483 18 is_stmt 0 view .LVU491
 1468 0004 ADF80000 		strh	r0, [sp]	@ movhi
 484:Middlewares/ST/BlueNRG-MS/hci/controller/bluenrg_gatt_aci.c ****   cp.start_handle = htobs(start_handle);
 1469              		.loc 1 484 3 is_stmt 1 view .LVU492
 1470              		.loc 1 484 19 is_stmt 0 view .LVU493
 1471 0008 ADF80210 		strh	r1, [sp, #2]	@ movhi
 485:Middlewares/ST/BlueNRG-MS/hci/controller/bluenrg_gatt_aci.c ****   cp.end_handle = htobs(end_handle);
 1472              		.loc 1 485 3 is_stmt 1 view .LVU494
 1473              		.loc 1 485 17 is_stmt 0 view .LVU495
 1474 000c ADF80420 		strh	r2, [sp, #4]	@ movhi
 486:Middlewares/ST/BlueNRG-MS/hci/controller/bluenrg_gatt_aci.c **** 
 487:Middlewares/ST/BlueNRG-MS/hci/controller/bluenrg_gatt_aci.c ****   BLUENRG_memset(&rq, 0, sizeof(rq));
 1475              		.loc 1 487 3 is_stmt 1 view .LVU496
 1476 0010 0021     		movs	r1, #0
 1477              	.LVL113:
 1478              		.loc 1 487 3 is_stmt 0 view .LVU497
 1479 0012 0291     		str	r1, [sp, #8]
 1480 0014 0391     		str	r1, [sp, #12]
 1481 0016 0491     		str	r1, [sp, #16]
 1482 0018 0591     		str	r1, [sp, #20]
 1483 001a 0691     		str	r1, [sp, #24]
 1484 001c 0791     		str	r1, [sp, #28]
 488:Middlewares/ST/BlueNRG-MS/hci/controller/bluenrg_gatt_aci.c ****   rq.ogf = OGF_VENDOR_CMD;
 1485              		.loc 1 488 3 is_stmt 1 view .LVU498
 1486              		.loc 1 488 10 is_stmt 0 view .LVU499
 1487 001e 3F23     		movs	r3, #63
 1488 0020 ADF80830 		strh	r3, [sp, #8]	@ movhi
 489:Middlewares/ST/BlueNRG-MS/hci/controller/bluenrg_gatt_aci.c ****   rq.ocf = OCF_ATT_FIND_INFO_REQ;
 1489              		.loc 1 489 3 is_stmt 1 view .LVU500
 1490              		.loc 1 489 10 is_stmt 0 view .LVU501
 1491 0024 4FF48673 		mov	r3, #268
 1492 0028 ADF80A30 		strh	r3, [sp, #10]	@ movhi
 490:Middlewares/ST/BlueNRG-MS/hci/controller/bluenrg_gatt_aci.c ****   rq.cparam = &cp;
 1493              		.loc 1 490 3 is_stmt 1 view .LVU502
 1494              		.loc 1 490 13 is_stmt 0 view .LVU503
 1495 002c CDF810D0 		str	sp, [sp, #16]
 491:Middlewares/ST/BlueNRG-MS/hci/controller/bluenrg_gatt_aci.c ****   rq.clen = ATT_FIND_INFO_REQ_CP_SIZE;
 1496              		.loc 1 491 3 is_stmt 1 view .LVU504
 1497              		.loc 1 491 11 is_stmt 0 view .LVU505
 1498 0030 0623     		movs	r3, #6
 1499 0032 0593     		str	r3, [sp, #20]
 492:Middlewares/ST/BlueNRG-MS/hci/controller/bluenrg_gatt_aci.c ****   rq.rparam = &status;
 1500              		.loc 1 492 3 is_stmt 1 view .LVU506
 1501              		.loc 1 492 13 is_stmt 0 view .LVU507
 1502 0034 0DF10703 		add	r3, sp, #7
 1503 0038 0693     		str	r3, [sp, #24]
 493:Middlewares/ST/BlueNRG-MS/hci/controller/bluenrg_gatt_aci.c ****   rq.rlen = 1;
 1504              		.loc 1 493 3 is_stmt 1 view .LVU508
 1505              		.loc 1 493 11 is_stmt 0 view .LVU509
 1506 003a 0123     		movs	r3, #1
 1507 003c 0793     		str	r3, [sp, #28]
ARM GAS  /tmp/cc8W75dr.s 			page 36


 494:Middlewares/ST/BlueNRG-MS/hci/controller/bluenrg_gatt_aci.c **** 
 495:Middlewares/ST/BlueNRG-MS/hci/controller/bluenrg_gatt_aci.c ****   if (hci_send_req(&rq, FALSE) < 0)
 1508              		.loc 1 495 3 is_stmt 1 view .LVU510
 1509              		.loc 1 495 7 is_stmt 0 view .LVU511
 1510 003e 02A8     		add	r0, sp, #8
 1511              	.LVL114:
 1512              		.loc 1 495 7 view .LVU512
 1513 0040 FFF7FEFF 		bl	hci_send_req
 1514              	.LVL115:
 1515              		.loc 1 495 6 view .LVU513
 1516 0044 0028     		cmp	r0, #0
 1517 0046 04DB     		blt	.L64
 496:Middlewares/ST/BlueNRG-MS/hci/controller/bluenrg_gatt_aci.c ****     return BLE_STATUS_TIMEOUT;
 497:Middlewares/ST/BlueNRG-MS/hci/controller/bluenrg_gatt_aci.c **** 
 498:Middlewares/ST/BlueNRG-MS/hci/controller/bluenrg_gatt_aci.c ****   return status;
 1518              		.loc 1 498 3 is_stmt 1 view .LVU514
 1519              		.loc 1 498 10 is_stmt 0 view .LVU515
 1520 0048 9DF80700 		ldrb	r0, [sp, #7]	@ zero_extendqisi2
 1521              	.L63:
 499:Middlewares/ST/BlueNRG-MS/hci/controller/bluenrg_gatt_aci.c **** }
 1522              		.loc 1 499 1 view .LVU516
 1523 004c 09B0     		add	sp, sp, #36
 1524              	.LCFI47:
 1525              		.cfi_remember_state
 1526              		.cfi_def_cfa_offset 4
 1527              		@ sp needed
 1528 004e 5DF804FB 		ldr	pc, [sp], #4
 1529              	.L64:
 1530              	.LCFI48:
 1531              		.cfi_restore_state
 496:Middlewares/ST/BlueNRG-MS/hci/controller/bluenrg_gatt_aci.c ****     return BLE_STATUS_TIMEOUT;
 1532              		.loc 1 496 12 view .LVU517
 1533 0052 FF20     		movs	r0, #255
 1534 0054 FAE7     		b	.L63
 1535              		.cfi_endproc
 1536              	.LFE303:
 1538              		.section	.text.aci_att_find_by_type_value_req,"ax",%progbits
 1539              		.align	1
 1540              		.global	aci_att_find_by_type_value_req
 1541              		.syntax unified
 1542              		.thumb
 1543              		.thumb_func
 1545              	aci_att_find_by_type_value_req:
 1546              	.LVL116:
 1547              	.LFB304:
 500:Middlewares/ST/BlueNRG-MS/hci/controller/bluenrg_gatt_aci.c **** 
 501:Middlewares/ST/BlueNRG-MS/hci/controller/bluenrg_gatt_aci.c **** tBleStatus aci_att_find_by_type_value_req(uint16_t conn_handle, uint16_t start_handle, uint16_t end
 502:Middlewares/ST/BlueNRG-MS/hci/controller/bluenrg_gatt_aci.c ****                                           uint8_t* uuid, uint8_t attr_val_len, uint8_t* attr_val)
 503:Middlewares/ST/BlueNRG-MS/hci/controller/bluenrg_gatt_aci.c **** {
 1548              		.loc 1 503 1 is_stmt 1 view -0
 1549              		.cfi_startproc
 1550              		@ args = 8, pretend = 0, frame = 56
 1551              		@ frame_needed = 0, uses_anonymous_args = 0
 1552              		.loc 1 503 1 is_stmt 0 view .LVU519
 1553 0000 10B5     		push	{r4, lr}
 1554              	.LCFI49:
 1555              		.cfi_def_cfa_offset 8
ARM GAS  /tmp/cc8W75dr.s 			page 37


 1556              		.cfi_offset 4, -8
 1557              		.cfi_offset 14, -4
 1558 0002 8EB0     		sub	sp, sp, #56
 1559              	.LCFI50:
 1560              		.cfi_def_cfa_offset 64
 1561 0004 9DF84040 		ldrb	r4, [sp, #64]	@ zero_extendqisi2
 504:Middlewares/ST/BlueNRG-MS/hci/controller/bluenrg_gatt_aci.c ****   struct hci_request rq;
 1562              		.loc 1 504 3 is_stmt 1 view .LVU520
 505:Middlewares/ST/BlueNRG-MS/hci/controller/bluenrg_gatt_aci.c ****   uint8_t status;
 1563              		.loc 1 505 3 view .LVU521
 506:Middlewares/ST/BlueNRG-MS/hci/controller/bluenrg_gatt_aci.c ****   att_find_by_type_value_req_cp cp;
 1564              		.loc 1 506 3 view .LVU522
 507:Middlewares/ST/BlueNRG-MS/hci/controller/bluenrg_gatt_aci.c ****   
 508:Middlewares/ST/BlueNRG-MS/hci/controller/bluenrg_gatt_aci.c ****   if(attr_val_len > sizeof(cp.attr_val))
 1565              		.loc 1 508 3 view .LVU523
 1566              		.loc 1 508 5 is_stmt 0 view .LVU524
 1567 0008 102C     		cmp	r4, #16
 1568 000a 30D8     		bhi	.L68
 509:Middlewares/ST/BlueNRG-MS/hci/controller/bluenrg_gatt_aci.c ****     return BLE_STATUS_INVALID_PARAMS;
 510:Middlewares/ST/BlueNRG-MS/hci/controller/bluenrg_gatt_aci.c **** 
 511:Middlewares/ST/BlueNRG-MS/hci/controller/bluenrg_gatt_aci.c ****   cp.conn_handle = htobs(conn_handle);
 1569              		.loc 1 511 3 is_stmt 1 view .LVU525
 1570              		.loc 1 511 18 is_stmt 0 view .LVU526
 1571 000c ADF80400 		strh	r0, [sp, #4]	@ movhi
 512:Middlewares/ST/BlueNRG-MS/hci/controller/bluenrg_gatt_aci.c ****   cp.start_handle = htobs(start_handle);
 1572              		.loc 1 512 3 is_stmt 1 view .LVU527
 1573              		.loc 1 512 19 is_stmt 0 view .LVU528
 1574 0010 ADF80610 		strh	r1, [sp, #6]	@ movhi
 513:Middlewares/ST/BlueNRG-MS/hci/controller/bluenrg_gatt_aci.c ****   cp.end_handle = htobs(end_handle);
 1575              		.loc 1 513 3 is_stmt 1 view .LVU529
 1576              		.loc 1 513 17 is_stmt 0 view .LVU530
 1577 0014 ADF80820 		strh	r2, [sp, #8]	@ movhi
 514:Middlewares/ST/BlueNRG-MS/hci/controller/bluenrg_gatt_aci.c ****   BLUENRG_memcpy(cp.uuid, uuid, 2);
 1578              		.loc 1 514 3 is_stmt 1 view .LVU531
 1579 0018 1B88     		ldrh	r3, [r3]	@ unaligned
 1580              	.LVL117:
 1581              		.loc 1 514 3 is_stmt 0 view .LVU532
 1582 001a ADF80A30 		strh	r3, [sp, #10]	@ movhi
 515:Middlewares/ST/BlueNRG-MS/hci/controller/bluenrg_gatt_aci.c ****   cp.attr_val_len = attr_val_len;
 1583              		.loc 1 515 3 is_stmt 1 view .LVU533
 1584              		.loc 1 515 19 is_stmt 0 view .LVU534
 1585 001e 8DF80C40 		strb	r4, [sp, #12]
 516:Middlewares/ST/BlueNRG-MS/hci/controller/bluenrg_gatt_aci.c ****   BLUENRG_memcpy(cp.attr_val, attr_val, attr_val_len);
 1586              		.loc 1 516 3 is_stmt 1 view .LVU535
 1587 0022 2246     		mov	r2, r4
 1588              	.LVL118:
 1589              		.loc 1 516 3 is_stmt 0 view .LVU536
 1590 0024 1199     		ldr	r1, [sp, #68]
 1591              	.LVL119:
 1592              		.loc 1 516 3 view .LVU537
 1593 0026 0DF10D00 		add	r0, sp, #13
 1594              	.LVL120:
 1595              		.loc 1 516 3 view .LVU538
 1596 002a FFF7FEFF 		bl	memcpy
 1597              	.LVL121:
 517:Middlewares/ST/BlueNRG-MS/hci/controller/bluenrg_gatt_aci.c **** 
 518:Middlewares/ST/BlueNRG-MS/hci/controller/bluenrg_gatt_aci.c ****   BLUENRG_memset(&rq, 0, sizeof(rq));
ARM GAS  /tmp/cc8W75dr.s 			page 38


 1598              		.loc 1 518 3 is_stmt 1 view .LVU539
 1599 002e 0021     		movs	r1, #0
 1600 0030 0891     		str	r1, [sp, #32]
 1601 0032 0991     		str	r1, [sp, #36]
 1602 0034 0A91     		str	r1, [sp, #40]
 1603 0036 0B91     		str	r1, [sp, #44]
 1604 0038 0C91     		str	r1, [sp, #48]
 1605 003a 0D91     		str	r1, [sp, #52]
 519:Middlewares/ST/BlueNRG-MS/hci/controller/bluenrg_gatt_aci.c ****   rq.ogf = OGF_VENDOR_CMD;
 1606              		.loc 1 519 3 view .LVU540
 1607              		.loc 1 519 10 is_stmt 0 view .LVU541
 1608 003c 3F23     		movs	r3, #63
 1609 003e ADF82030 		strh	r3, [sp, #32]	@ movhi
 520:Middlewares/ST/BlueNRG-MS/hci/controller/bluenrg_gatt_aci.c ****   rq.ocf = OCF_ATT_FIND_BY_TYPE_VALUE_REQ;
 1610              		.loc 1 520 3 is_stmt 1 view .LVU542
 1611              		.loc 1 520 10 is_stmt 0 view .LVU543
 1612 0042 40F20D13 		movw	r3, #269
 1613 0046 ADF82230 		strh	r3, [sp, #34]	@ movhi
 521:Middlewares/ST/BlueNRG-MS/hci/controller/bluenrg_gatt_aci.c ****   rq.cparam = &cp;
 1614              		.loc 1 521 3 is_stmt 1 view .LVU544
 1615              		.loc 1 521 13 is_stmt 0 view .LVU545
 1616 004a 01AB     		add	r3, sp, #4
 1617 004c 0A93     		str	r3, [sp, #40]
 522:Middlewares/ST/BlueNRG-MS/hci/controller/bluenrg_gatt_aci.c ****   rq.clen = ATT_FIND_BY_TYPE_VALUE_REQ_CP_SIZE + attr_val_len;
 1618              		.loc 1 522 3 is_stmt 1 view .LVU546
 1619              		.loc 1 522 48 is_stmt 0 view .LVU547
 1620 004e 0934     		adds	r4, r4, #9
 1621              		.loc 1 522 11 view .LVU548
 1622 0050 0B94     		str	r4, [sp, #44]
 523:Middlewares/ST/BlueNRG-MS/hci/controller/bluenrg_gatt_aci.c ****   rq.rparam = &status;
 1623              		.loc 1 523 3 is_stmt 1 view .LVU549
 1624              		.loc 1 523 13 is_stmt 0 view .LVU550
 1625 0052 0DF11F03 		add	r3, sp, #31
 1626 0056 0C93     		str	r3, [sp, #48]
 524:Middlewares/ST/BlueNRG-MS/hci/controller/bluenrg_gatt_aci.c ****   rq.rlen = 1;
 1627              		.loc 1 524 3 is_stmt 1 view .LVU551
 1628              		.loc 1 524 11 is_stmt 0 view .LVU552
 1629 0058 0123     		movs	r3, #1
 1630 005a 0D93     		str	r3, [sp, #52]
 525:Middlewares/ST/BlueNRG-MS/hci/controller/bluenrg_gatt_aci.c **** 
 526:Middlewares/ST/BlueNRG-MS/hci/controller/bluenrg_gatt_aci.c ****   if (hci_send_req(&rq, FALSE) < 0)
 1631              		.loc 1 526 3 is_stmt 1 view .LVU553
 1632              		.loc 1 526 7 is_stmt 0 view .LVU554
 1633 005c 08A8     		add	r0, sp, #32
 1634 005e FFF7FEFF 		bl	hci_send_req
 1635              	.LVL122:
 1636              		.loc 1 526 6 view .LVU555
 1637 0062 0028     		cmp	r0, #0
 1638 0064 05DB     		blt	.L69
 527:Middlewares/ST/BlueNRG-MS/hci/controller/bluenrg_gatt_aci.c ****     return BLE_STATUS_TIMEOUT;
 528:Middlewares/ST/BlueNRG-MS/hci/controller/bluenrg_gatt_aci.c **** 
 529:Middlewares/ST/BlueNRG-MS/hci/controller/bluenrg_gatt_aci.c ****   return status;
 1639              		.loc 1 529 3 is_stmt 1 view .LVU556
 1640              		.loc 1 529 10 is_stmt 0 view .LVU557
 1641 0066 9DF81F00 		ldrb	r0, [sp, #31]	@ zero_extendqisi2
 1642              	.L67:
 530:Middlewares/ST/BlueNRG-MS/hci/controller/bluenrg_gatt_aci.c **** }
ARM GAS  /tmp/cc8W75dr.s 			page 39


 1643              		.loc 1 530 1 view .LVU558
 1644 006a 0EB0     		add	sp, sp, #56
 1645              	.LCFI51:
 1646              		.cfi_remember_state
 1647              		.cfi_def_cfa_offset 8
 1648              		@ sp needed
 1649 006c 10BD     		pop	{r4, pc}
 1650              	.LVL123:
 1651              	.L68:
 1652              	.LCFI52:
 1653              		.cfi_restore_state
 509:Middlewares/ST/BlueNRG-MS/hci/controller/bluenrg_gatt_aci.c **** 
 1654              		.loc 1 509 12 view .LVU559
 1655 006e 4220     		movs	r0, #66
 1656              	.LVL124:
 509:Middlewares/ST/BlueNRG-MS/hci/controller/bluenrg_gatt_aci.c **** 
 1657              		.loc 1 509 12 view .LVU560
 1658 0070 FBE7     		b	.L67
 1659              	.LVL125:
 1660              	.L69:
 527:Middlewares/ST/BlueNRG-MS/hci/controller/bluenrg_gatt_aci.c ****     return BLE_STATUS_TIMEOUT;
 1661              		.loc 1 527 12 view .LVU561
 1662 0072 FF20     		movs	r0, #255
 1663 0074 F9E7     		b	.L67
 1664              		.cfi_endproc
 1665              	.LFE304:
 1667              		.section	.text.aci_att_read_by_type_req,"ax",%progbits
 1668              		.align	1
 1669              		.global	aci_att_read_by_type_req
 1670              		.syntax unified
 1671              		.thumb
 1672              		.thumb_func
 1674              	aci_att_read_by_type_req:
 1675              	.LVL126:
 1676              	.LFB305:
 531:Middlewares/ST/BlueNRG-MS/hci/controller/bluenrg_gatt_aci.c **** 
 532:Middlewares/ST/BlueNRG-MS/hci/controller/bluenrg_gatt_aci.c **** tBleStatus aci_att_read_by_type_req(uint16_t conn_handle, uint16_t start_handle, uint16_t end_handl
 533:Middlewares/ST/BlueNRG-MS/hci/controller/bluenrg_gatt_aci.c ****                                     uint8_t  uuid_type, uint8_t* uuid)
 534:Middlewares/ST/BlueNRG-MS/hci/controller/bluenrg_gatt_aci.c **** {
 1677              		.loc 1 534 1 is_stmt 1 view -0
 1678              		.cfi_startproc
 1679              		@ args = 4, pretend = 0, frame = 48
 1680              		@ frame_needed = 0, uses_anonymous_args = 0
 1681              		.loc 1 534 1 is_stmt 0 view .LVU563
 1682 0000 10B5     		push	{r4, lr}
 1683              	.LCFI53:
 1684              		.cfi_def_cfa_offset 8
 1685              		.cfi_offset 4, -8
 1686              		.cfi_offset 14, -4
 1687 0002 8CB0     		sub	sp, sp, #48
 1688              	.LCFI54:
 1689              		.cfi_def_cfa_offset 56
 535:Middlewares/ST/BlueNRG-MS/hci/controller/bluenrg_gatt_aci.c ****   struct hci_request rq;
 1690              		.loc 1 535 3 is_stmt 1 view .LVU564
 536:Middlewares/ST/BlueNRG-MS/hci/controller/bluenrg_gatt_aci.c ****   uint8_t status;
 1691              		.loc 1 536 3 view .LVU565
 537:Middlewares/ST/BlueNRG-MS/hci/controller/bluenrg_gatt_aci.c ****   att_read_by_type_req_cp cp;
ARM GAS  /tmp/cc8W75dr.s 			page 40


 1692              		.loc 1 537 3 view .LVU566
 538:Middlewares/ST/BlueNRG-MS/hci/controller/bluenrg_gatt_aci.c ****   uint8_t uuid_len;
 1693              		.loc 1 538 3 view .LVU567
 539:Middlewares/ST/BlueNRG-MS/hci/controller/bluenrg_gatt_aci.c ****   
 540:Middlewares/ST/BlueNRG-MS/hci/controller/bluenrg_gatt_aci.c ****   if(uuid_type == UUID_TYPE_16){
 1694              		.loc 1 540 3 view .LVU568
 1695              		.loc 1 540 5 is_stmt 0 view .LVU569
 1696 0004 012B     		cmp	r3, #1
 1697 0006 2ED0     		beq	.L77
 541:Middlewares/ST/BlueNRG-MS/hci/controller/bluenrg_gatt_aci.c ****     uuid_len = 2;
 542:Middlewares/ST/BlueNRG-MS/hci/controller/bluenrg_gatt_aci.c ****   }
 543:Middlewares/ST/BlueNRG-MS/hci/controller/bluenrg_gatt_aci.c ****   else{
 544:Middlewares/ST/BlueNRG-MS/hci/controller/bluenrg_gatt_aci.c ****     uuid_len = 16;
 1698              		.loc 1 544 14 view .LVU570
 1699 0008 1024     		movs	r4, #16
 1700              	.L72:
 1701              	.LVL127:
 545:Middlewares/ST/BlueNRG-MS/hci/controller/bluenrg_gatt_aci.c ****   }
 546:Middlewares/ST/BlueNRG-MS/hci/controller/bluenrg_gatt_aci.c **** 
 547:Middlewares/ST/BlueNRG-MS/hci/controller/bluenrg_gatt_aci.c ****   cp.conn_handle = htobs(conn_handle);
 1702              		.loc 1 547 3 is_stmt 1 view .LVU571
 1703              		.loc 1 547 18 is_stmt 0 view .LVU572
 1704 000a ADF80000 		strh	r0, [sp]	@ movhi
 548:Middlewares/ST/BlueNRG-MS/hci/controller/bluenrg_gatt_aci.c ****   cp.start_handle = htobs(start_handle);
 1705              		.loc 1 548 3 is_stmt 1 view .LVU573
 1706              		.loc 1 548 19 is_stmt 0 view .LVU574
 1707 000e ADF80210 		strh	r1, [sp, #2]	@ movhi
 549:Middlewares/ST/BlueNRG-MS/hci/controller/bluenrg_gatt_aci.c ****   cp.end_handle = htobs(end_handle);
 1708              		.loc 1 549 3 is_stmt 1 view .LVU575
 1709              		.loc 1 549 17 is_stmt 0 view .LVU576
 1710 0012 ADF80420 		strh	r2, [sp, #4]	@ movhi
 550:Middlewares/ST/BlueNRG-MS/hci/controller/bluenrg_gatt_aci.c ****   cp.uuid_type = uuid_type;
 1711              		.loc 1 550 3 is_stmt 1 view .LVU577
 1712              		.loc 1 550 16 is_stmt 0 view .LVU578
 1713 0016 8DF80630 		strb	r3, [sp, #6]
 551:Middlewares/ST/BlueNRG-MS/hci/controller/bluenrg_gatt_aci.c ****   BLUENRG_memcpy(cp.uuid, uuid, uuid_len);
 1714              		.loc 1 551 3 is_stmt 1 view .LVU579
 1715 001a 2246     		mov	r2, r4
 1716              	.LVL128:
 1717              		.loc 1 551 3 is_stmt 0 view .LVU580
 1718 001c 0E99     		ldr	r1, [sp, #56]
 1719              	.LVL129:
 1720              		.loc 1 551 3 view .LVU581
 1721 001e 0DF10700 		add	r0, sp, #7
 1722              	.LVL130:
 1723              		.loc 1 551 3 view .LVU582
 1724 0022 FFF7FEFF 		bl	memcpy
 1725              	.LVL131:
 552:Middlewares/ST/BlueNRG-MS/hci/controller/bluenrg_gatt_aci.c **** 
 553:Middlewares/ST/BlueNRG-MS/hci/controller/bluenrg_gatt_aci.c ****   BLUENRG_memset(&rq, 0, sizeof(rq));
 1726              		.loc 1 553 3 is_stmt 1 view .LVU583
 1727 0026 0021     		movs	r1, #0
 1728 0028 0691     		str	r1, [sp, #24]
 1729 002a 0791     		str	r1, [sp, #28]
 1730 002c 0891     		str	r1, [sp, #32]
 1731 002e 0991     		str	r1, [sp, #36]
 1732 0030 0A91     		str	r1, [sp, #40]
ARM GAS  /tmp/cc8W75dr.s 			page 41


 1733 0032 0B91     		str	r1, [sp, #44]
 554:Middlewares/ST/BlueNRG-MS/hci/controller/bluenrg_gatt_aci.c ****   rq.ogf = OGF_VENDOR_CMD;
 1734              		.loc 1 554 3 view .LVU584
 1735              		.loc 1 554 10 is_stmt 0 view .LVU585
 1736 0034 3F23     		movs	r3, #63
 1737 0036 ADF81830 		strh	r3, [sp, #24]	@ movhi
 555:Middlewares/ST/BlueNRG-MS/hci/controller/bluenrg_gatt_aci.c ****   rq.ocf = OCF_ATT_READ_BY_TYPE_REQ;
 1738              		.loc 1 555 3 is_stmt 1 view .LVU586
 1739              		.loc 1 555 10 is_stmt 0 view .LVU587
 1740 003a 4FF48773 		mov	r3, #270
 1741 003e ADF81A30 		strh	r3, [sp, #26]	@ movhi
 556:Middlewares/ST/BlueNRG-MS/hci/controller/bluenrg_gatt_aci.c ****   rq.cparam = &cp;
 1742              		.loc 1 556 3 is_stmt 1 view .LVU588
 1743              		.loc 1 556 13 is_stmt 0 view .LVU589
 1744 0042 CDF820D0 		str	sp, [sp, #32]
 557:Middlewares/ST/BlueNRG-MS/hci/controller/bluenrg_gatt_aci.c ****   rq.clen = ATT_READ_BY_TYPE_REQ_CP_SIZE + uuid_len;
 1745              		.loc 1 557 3 is_stmt 1 view .LVU590
 1746              		.loc 1 557 42 is_stmt 0 view .LVU591
 1747 0046 0734     		adds	r4, r4, #7
 1748              	.LVL132:
 1749              		.loc 1 557 11 view .LVU592
 1750 0048 0994     		str	r4, [sp, #36]
 558:Middlewares/ST/BlueNRG-MS/hci/controller/bluenrg_gatt_aci.c ****   rq.rparam = &status;
 1751              		.loc 1 558 3 is_stmt 1 view .LVU593
 1752              		.loc 1 558 13 is_stmt 0 view .LVU594
 1753 004a 0DF11703 		add	r3, sp, #23
 1754 004e 0A93     		str	r3, [sp, #40]
 559:Middlewares/ST/BlueNRG-MS/hci/controller/bluenrg_gatt_aci.c ****   rq.rlen = 1;
 1755              		.loc 1 559 3 is_stmt 1 view .LVU595
 1756              		.loc 1 559 11 is_stmt 0 view .LVU596
 1757 0050 0123     		movs	r3, #1
 1758 0052 0B93     		str	r3, [sp, #44]
 560:Middlewares/ST/BlueNRG-MS/hci/controller/bluenrg_gatt_aci.c **** 
 561:Middlewares/ST/BlueNRG-MS/hci/controller/bluenrg_gatt_aci.c ****   if (hci_send_req(&rq, FALSE) < 0)
 1759              		.loc 1 561 3 is_stmt 1 view .LVU597
 1760              		.loc 1 561 7 is_stmt 0 view .LVU598
 1761 0054 06A8     		add	r0, sp, #24
 1762 0056 FFF7FEFF 		bl	hci_send_req
 1763              	.LVL133:
 1764              		.loc 1 561 6 view .LVU599
 1765 005a 0028     		cmp	r0, #0
 1766 005c 05DB     		blt	.L75
 562:Middlewares/ST/BlueNRG-MS/hci/controller/bluenrg_gatt_aci.c ****     return BLE_STATUS_TIMEOUT;
 563:Middlewares/ST/BlueNRG-MS/hci/controller/bluenrg_gatt_aci.c **** 
 564:Middlewares/ST/BlueNRG-MS/hci/controller/bluenrg_gatt_aci.c ****   return status;
 1767              		.loc 1 564 3 is_stmt 1 view .LVU600
 1768              		.loc 1 564 10 is_stmt 0 view .LVU601
 1769 005e 9DF81700 		ldrb	r0, [sp, #23]	@ zero_extendqisi2
 1770              	.L73:
 565:Middlewares/ST/BlueNRG-MS/hci/controller/bluenrg_gatt_aci.c **** }
 1771              		.loc 1 565 1 view .LVU602
 1772 0062 0CB0     		add	sp, sp, #48
 1773              	.LCFI55:
 1774              		.cfi_remember_state
 1775              		.cfi_def_cfa_offset 8
 1776              		@ sp needed
 1777 0064 10BD     		pop	{r4, pc}
ARM GAS  /tmp/cc8W75dr.s 			page 42


 1778              	.LVL134:
 1779              	.L77:
 1780              	.LCFI56:
 1781              		.cfi_restore_state
 541:Middlewares/ST/BlueNRG-MS/hci/controller/bluenrg_gatt_aci.c ****   }
 1782              		.loc 1 541 14 view .LVU603
 1783 0066 0224     		movs	r4, #2
 1784 0068 CFE7     		b	.L72
 1785              	.LVL135:
 1786              	.L75:
 562:Middlewares/ST/BlueNRG-MS/hci/controller/bluenrg_gatt_aci.c ****     return BLE_STATUS_TIMEOUT;
 1787              		.loc 1 562 12 view .LVU604
 1788 006a FF20     		movs	r0, #255
 1789 006c F9E7     		b	.L73
 1790              		.cfi_endproc
 1791              	.LFE305:
 1793              		.section	.text.aci_att_read_by_group_type_req,"ax",%progbits
 1794              		.align	1
 1795              		.global	aci_att_read_by_group_type_req
 1796              		.syntax unified
 1797              		.thumb
 1798              		.thumb_func
 1800              	aci_att_read_by_group_type_req:
 1801              	.LVL136:
 1802              	.LFB306:
 566:Middlewares/ST/BlueNRG-MS/hci/controller/bluenrg_gatt_aci.c **** 
 567:Middlewares/ST/BlueNRG-MS/hci/controller/bluenrg_gatt_aci.c **** tBleStatus aci_att_read_by_group_type_req(uint16_t conn_handle, uint16_t start_handle, uint16_t end
 568:Middlewares/ST/BlueNRG-MS/hci/controller/bluenrg_gatt_aci.c ****                                     uint8_t  uuid_type, uint8_t* uuid)
 569:Middlewares/ST/BlueNRG-MS/hci/controller/bluenrg_gatt_aci.c **** {
 1803              		.loc 1 569 1 is_stmt 1 view -0
 1804              		.cfi_startproc
 1805              		@ args = 4, pretend = 0, frame = 48
 1806              		@ frame_needed = 0, uses_anonymous_args = 0
 1807              		.loc 1 569 1 is_stmt 0 view .LVU606
 1808 0000 10B5     		push	{r4, lr}
 1809              	.LCFI57:
 1810              		.cfi_def_cfa_offset 8
 1811              		.cfi_offset 4, -8
 1812              		.cfi_offset 14, -4
 1813 0002 8CB0     		sub	sp, sp, #48
 1814              	.LCFI58:
 1815              		.cfi_def_cfa_offset 56
 570:Middlewares/ST/BlueNRG-MS/hci/controller/bluenrg_gatt_aci.c ****   struct hci_request rq;
 1816              		.loc 1 570 3 is_stmt 1 view .LVU607
 571:Middlewares/ST/BlueNRG-MS/hci/controller/bluenrg_gatt_aci.c ****   uint8_t status;
 1817              		.loc 1 571 3 view .LVU608
 572:Middlewares/ST/BlueNRG-MS/hci/controller/bluenrg_gatt_aci.c ****   att_read_by_group_type_req_cp cp;
 1818              		.loc 1 572 3 view .LVU609
 573:Middlewares/ST/BlueNRG-MS/hci/controller/bluenrg_gatt_aci.c ****   uint8_t uuid_len;
 1819              		.loc 1 573 3 view .LVU610
 574:Middlewares/ST/BlueNRG-MS/hci/controller/bluenrg_gatt_aci.c ****   
 575:Middlewares/ST/BlueNRG-MS/hci/controller/bluenrg_gatt_aci.c ****   if(uuid_type == UUID_TYPE_16){
 1820              		.loc 1 575 3 view .LVU611
 1821              		.loc 1 575 5 is_stmt 0 view .LVU612
 1822 0004 012B     		cmp	r3, #1
 1823 0006 2ED0     		beq	.L84
 576:Middlewares/ST/BlueNRG-MS/hci/controller/bluenrg_gatt_aci.c ****     uuid_len = 2;
ARM GAS  /tmp/cc8W75dr.s 			page 43


 577:Middlewares/ST/BlueNRG-MS/hci/controller/bluenrg_gatt_aci.c ****   }
 578:Middlewares/ST/BlueNRG-MS/hci/controller/bluenrg_gatt_aci.c ****   else{
 579:Middlewares/ST/BlueNRG-MS/hci/controller/bluenrg_gatt_aci.c ****     uuid_len = 16;
 1824              		.loc 1 579 14 view .LVU613
 1825 0008 1024     		movs	r4, #16
 1826              	.L79:
 1827              	.LVL137:
 580:Middlewares/ST/BlueNRG-MS/hci/controller/bluenrg_gatt_aci.c ****   }
 581:Middlewares/ST/BlueNRG-MS/hci/controller/bluenrg_gatt_aci.c **** 
 582:Middlewares/ST/BlueNRG-MS/hci/controller/bluenrg_gatt_aci.c ****   cp.conn_handle = htobs(conn_handle);
 1828              		.loc 1 582 3 is_stmt 1 view .LVU614
 1829              		.loc 1 582 18 is_stmt 0 view .LVU615
 1830 000a ADF80000 		strh	r0, [sp]	@ movhi
 583:Middlewares/ST/BlueNRG-MS/hci/controller/bluenrg_gatt_aci.c ****   cp.start_handle = htobs(start_handle);
 1831              		.loc 1 583 3 is_stmt 1 view .LVU616
 1832              		.loc 1 583 19 is_stmt 0 view .LVU617
 1833 000e ADF80210 		strh	r1, [sp, #2]	@ movhi
 584:Middlewares/ST/BlueNRG-MS/hci/controller/bluenrg_gatt_aci.c ****   cp.end_handle = htobs(end_handle);
 1834              		.loc 1 584 3 is_stmt 1 view .LVU618
 1835              		.loc 1 584 17 is_stmt 0 view .LVU619
 1836 0012 ADF80420 		strh	r2, [sp, #4]	@ movhi
 585:Middlewares/ST/BlueNRG-MS/hci/controller/bluenrg_gatt_aci.c ****   cp.uuid_type = uuid_type;
 1837              		.loc 1 585 3 is_stmt 1 view .LVU620
 1838              		.loc 1 585 16 is_stmt 0 view .LVU621
 1839 0016 8DF80630 		strb	r3, [sp, #6]
 586:Middlewares/ST/BlueNRG-MS/hci/controller/bluenrg_gatt_aci.c ****   BLUENRG_memcpy(cp.uuid, uuid, uuid_len);
 1840              		.loc 1 586 3 is_stmt 1 view .LVU622
 1841 001a 2246     		mov	r2, r4
 1842              	.LVL138:
 1843              		.loc 1 586 3 is_stmt 0 view .LVU623
 1844 001c 0E99     		ldr	r1, [sp, #56]
 1845              	.LVL139:
 1846              		.loc 1 586 3 view .LVU624
 1847 001e 0DF10700 		add	r0, sp, #7
 1848              	.LVL140:
 1849              		.loc 1 586 3 view .LVU625
 1850 0022 FFF7FEFF 		bl	memcpy
 1851              	.LVL141:
 587:Middlewares/ST/BlueNRG-MS/hci/controller/bluenrg_gatt_aci.c **** 
 588:Middlewares/ST/BlueNRG-MS/hci/controller/bluenrg_gatt_aci.c ****   BLUENRG_memset(&rq, 0, sizeof(rq));
 1852              		.loc 1 588 3 is_stmt 1 view .LVU626
 1853 0026 0021     		movs	r1, #0
 1854 0028 0691     		str	r1, [sp, #24]
 1855 002a 0791     		str	r1, [sp, #28]
 1856 002c 0891     		str	r1, [sp, #32]
 1857 002e 0991     		str	r1, [sp, #36]
 1858 0030 0A91     		str	r1, [sp, #40]
 1859 0032 0B91     		str	r1, [sp, #44]
 589:Middlewares/ST/BlueNRG-MS/hci/controller/bluenrg_gatt_aci.c ****   rq.ogf = OGF_VENDOR_CMD;
 1860              		.loc 1 589 3 view .LVU627
 1861              		.loc 1 589 10 is_stmt 0 view .LVU628
 1862 0034 3F23     		movs	r3, #63
 1863 0036 ADF81830 		strh	r3, [sp, #24]	@ movhi
 590:Middlewares/ST/BlueNRG-MS/hci/controller/bluenrg_gatt_aci.c ****   rq.ocf = OCF_ATT_READ_BY_GROUP_TYPE_REQ;
 1864              		.loc 1 590 3 is_stmt 1 view .LVU629
 1865              		.loc 1 590 10 is_stmt 0 view .LVU630
 1866 003a 40F20F13 		movw	r3, #271
ARM GAS  /tmp/cc8W75dr.s 			page 44


 1867 003e ADF81A30 		strh	r3, [sp, #26]	@ movhi
 591:Middlewares/ST/BlueNRG-MS/hci/controller/bluenrg_gatt_aci.c ****   rq.cparam = &cp;
 1868              		.loc 1 591 3 is_stmt 1 view .LVU631
 1869              		.loc 1 591 13 is_stmt 0 view .LVU632
 1870 0042 CDF820D0 		str	sp, [sp, #32]
 592:Middlewares/ST/BlueNRG-MS/hci/controller/bluenrg_gatt_aci.c ****   rq.clen = ATT_READ_BY_GROUP_TYPE_REQ_CP_SIZE + uuid_len;
 1871              		.loc 1 592 3 is_stmt 1 view .LVU633
 1872              		.loc 1 592 48 is_stmt 0 view .LVU634
 1873 0046 0734     		adds	r4, r4, #7
 1874              	.LVL142:
 1875              		.loc 1 592 11 view .LVU635
 1876 0048 0994     		str	r4, [sp, #36]
 593:Middlewares/ST/BlueNRG-MS/hci/controller/bluenrg_gatt_aci.c ****   rq.rparam = &status;
 1877              		.loc 1 593 3 is_stmt 1 view .LVU636
 1878              		.loc 1 593 13 is_stmt 0 view .LVU637
 1879 004a 0DF11703 		add	r3, sp, #23
 1880 004e 0A93     		str	r3, [sp, #40]
 594:Middlewares/ST/BlueNRG-MS/hci/controller/bluenrg_gatt_aci.c ****   rq.rlen = 1;
 1881              		.loc 1 594 3 is_stmt 1 view .LVU638
 1882              		.loc 1 594 11 is_stmt 0 view .LVU639
 1883 0050 0123     		movs	r3, #1
 1884 0052 0B93     		str	r3, [sp, #44]
 595:Middlewares/ST/BlueNRG-MS/hci/controller/bluenrg_gatt_aci.c **** 
 596:Middlewares/ST/BlueNRG-MS/hci/controller/bluenrg_gatt_aci.c ****   if (hci_send_req(&rq, FALSE) < 0)
 1885              		.loc 1 596 3 is_stmt 1 view .LVU640
 1886              		.loc 1 596 7 is_stmt 0 view .LVU641
 1887 0054 06A8     		add	r0, sp, #24
 1888 0056 FFF7FEFF 		bl	hci_send_req
 1889              	.LVL143:
 1890              		.loc 1 596 6 view .LVU642
 1891 005a 0028     		cmp	r0, #0
 1892 005c 05DB     		blt	.L82
 597:Middlewares/ST/BlueNRG-MS/hci/controller/bluenrg_gatt_aci.c ****     return BLE_STATUS_TIMEOUT;
 598:Middlewares/ST/BlueNRG-MS/hci/controller/bluenrg_gatt_aci.c **** 
 599:Middlewares/ST/BlueNRG-MS/hci/controller/bluenrg_gatt_aci.c ****   return status;
 1893              		.loc 1 599 3 is_stmt 1 view .LVU643
 1894              		.loc 1 599 10 is_stmt 0 view .LVU644
 1895 005e 9DF81700 		ldrb	r0, [sp, #23]	@ zero_extendqisi2
 1896              	.L80:
 600:Middlewares/ST/BlueNRG-MS/hci/controller/bluenrg_gatt_aci.c **** }
 1897              		.loc 1 600 1 view .LVU645
 1898 0062 0CB0     		add	sp, sp, #48
 1899              	.LCFI59:
 1900              		.cfi_remember_state
 1901              		.cfi_def_cfa_offset 8
 1902              		@ sp needed
 1903 0064 10BD     		pop	{r4, pc}
 1904              	.LVL144:
 1905              	.L84:
 1906              	.LCFI60:
 1907              		.cfi_restore_state
 576:Middlewares/ST/BlueNRG-MS/hci/controller/bluenrg_gatt_aci.c ****   }
 1908              		.loc 1 576 14 view .LVU646
 1909 0066 0224     		movs	r4, #2
 1910 0068 CFE7     		b	.L79
 1911              	.LVL145:
 1912              	.L82:
ARM GAS  /tmp/cc8W75dr.s 			page 45


 597:Middlewares/ST/BlueNRG-MS/hci/controller/bluenrg_gatt_aci.c ****     return BLE_STATUS_TIMEOUT;
 1913              		.loc 1 597 12 view .LVU647
 1914 006a FF20     		movs	r0, #255
 1915 006c F9E7     		b	.L80
 1916              		.cfi_endproc
 1917              	.LFE306:
 1919              		.section	.text.aci_att_prepare_write_req,"ax",%progbits
 1920              		.align	1
 1921              		.global	aci_att_prepare_write_req
 1922              		.syntax unified
 1923              		.thumb
 1924              		.thumb_func
 1926              	aci_att_prepare_write_req:
 1927              	.LVL146:
 1928              	.LFB307:
 601:Middlewares/ST/BlueNRG-MS/hci/controller/bluenrg_gatt_aci.c **** 
 602:Middlewares/ST/BlueNRG-MS/hci/controller/bluenrg_gatt_aci.c **** tBleStatus aci_att_prepare_write_req(uint16_t conn_handle, uint16_t attr_handle, uint16_t value_off
 603:Middlewares/ST/BlueNRG-MS/hci/controller/bluenrg_gatt_aci.c ****                                     uint8_t  attr_val_len, uint8_t* attr_val)
 604:Middlewares/ST/BlueNRG-MS/hci/controller/bluenrg_gatt_aci.c **** {
 1929              		.loc 1 604 1 is_stmt 1 view -0
 1930              		.cfi_startproc
 1931              		@ args = 4, pretend = 0, frame = 56
 1932              		@ frame_needed = 0, uses_anonymous_args = 0
 605:Middlewares/ST/BlueNRG-MS/hci/controller/bluenrg_gatt_aci.c ****   struct hci_request rq;
 1933              		.loc 1 605 3 view .LVU649
 606:Middlewares/ST/BlueNRG-MS/hci/controller/bluenrg_gatt_aci.c ****   uint8_t status;
 1934              		.loc 1 606 3 view .LVU650
 607:Middlewares/ST/BlueNRG-MS/hci/controller/bluenrg_gatt_aci.c ****   att_prepare_write_req_cp cp;
 1935              		.loc 1 607 3 view .LVU651
 608:Middlewares/ST/BlueNRG-MS/hci/controller/bluenrg_gatt_aci.c ****   
 609:Middlewares/ST/BlueNRG-MS/hci/controller/bluenrg_gatt_aci.c ****   if(attr_val_len > sizeof(cp.attr_val))
 1936              		.loc 1 609 3 view .LVU652
 1937              		.loc 1 609 5 is_stmt 0 view .LVU653
 1938 0000 122B     		cmp	r3, #18
 1939 0002 30D8     		bhi	.L87
 604:Middlewares/ST/BlueNRG-MS/hci/controller/bluenrg_gatt_aci.c ****   struct hci_request rq;
 1940              		.loc 1 604 1 view .LVU654
 1941 0004 10B5     		push	{r4, lr}
 1942              	.LCFI61:
 1943              		.cfi_def_cfa_offset 8
 1944              		.cfi_offset 4, -8
 1945              		.cfi_offset 14, -4
 1946 0006 8EB0     		sub	sp, sp, #56
 1947              	.LCFI62:
 1948              		.cfi_def_cfa_offset 64
 1949 0008 1C46     		mov	r4, r3
 610:Middlewares/ST/BlueNRG-MS/hci/controller/bluenrg_gatt_aci.c ****     return BLE_STATUS_INVALID_PARAMS;
 611:Middlewares/ST/BlueNRG-MS/hci/controller/bluenrg_gatt_aci.c **** 
 612:Middlewares/ST/BlueNRG-MS/hci/controller/bluenrg_gatt_aci.c ****   cp.conn_handle = htobs(conn_handle);
 1950              		.loc 1 612 3 is_stmt 1 view .LVU655
 1951              		.loc 1 612 18 is_stmt 0 view .LVU656
 1952 000a ADF80400 		strh	r0, [sp, #4]	@ movhi
 613:Middlewares/ST/BlueNRG-MS/hci/controller/bluenrg_gatt_aci.c ****   cp.attr_handle = htobs(attr_handle);
 1953              		.loc 1 613 3 is_stmt 1 view .LVU657
 1954              		.loc 1 613 18 is_stmt 0 view .LVU658
 1955 000e ADF80610 		strh	r1, [sp, #6]	@ movhi
 614:Middlewares/ST/BlueNRG-MS/hci/controller/bluenrg_gatt_aci.c ****   cp.value_offset = htobs(value_offset);
ARM GAS  /tmp/cc8W75dr.s 			page 46


 1956              		.loc 1 614 3 is_stmt 1 view .LVU659
 1957              		.loc 1 614 19 is_stmt 0 view .LVU660
 1958 0012 ADF80820 		strh	r2, [sp, #8]	@ movhi
 615:Middlewares/ST/BlueNRG-MS/hci/controller/bluenrg_gatt_aci.c ****   cp.attr_val_len = attr_val_len;
 1959              		.loc 1 615 3 is_stmt 1 view .LVU661
 1960              		.loc 1 615 19 is_stmt 0 view .LVU662
 1961 0016 8DF80A30 		strb	r3, [sp, #10]
 616:Middlewares/ST/BlueNRG-MS/hci/controller/bluenrg_gatt_aci.c ****   BLUENRG_memcpy(cp.attr_val, attr_val, attr_val_len);
 1962              		.loc 1 616 3 is_stmt 1 view .LVU663
 1963 001a 1A46     		mov	r2, r3
 1964              	.LVL147:
 1965              		.loc 1 616 3 is_stmt 0 view .LVU664
 1966 001c 1099     		ldr	r1, [sp, #64]
 1967              	.LVL148:
 1968              		.loc 1 616 3 view .LVU665
 1969 001e 0DF10B00 		add	r0, sp, #11
 1970              	.LVL149:
 1971              		.loc 1 616 3 view .LVU666
 1972 0022 FFF7FEFF 		bl	memcpy
 1973              	.LVL150:
 617:Middlewares/ST/BlueNRG-MS/hci/controller/bluenrg_gatt_aci.c **** 
 618:Middlewares/ST/BlueNRG-MS/hci/controller/bluenrg_gatt_aci.c ****   BLUENRG_memset(&rq, 0, sizeof(rq));
 1974              		.loc 1 618 3 is_stmt 1 view .LVU667
 1975 0026 0021     		movs	r1, #0
 1976 0028 0891     		str	r1, [sp, #32]
 1977 002a 0991     		str	r1, [sp, #36]
 1978 002c 0A91     		str	r1, [sp, #40]
 1979 002e 0B91     		str	r1, [sp, #44]
 1980 0030 0C91     		str	r1, [sp, #48]
 1981 0032 0D91     		str	r1, [sp, #52]
 619:Middlewares/ST/BlueNRG-MS/hci/controller/bluenrg_gatt_aci.c ****   rq.ogf = OGF_VENDOR_CMD;
 1982              		.loc 1 619 3 view .LVU668
 1983              		.loc 1 619 10 is_stmt 0 view .LVU669
 1984 0034 3F23     		movs	r3, #63
 1985 0036 ADF82030 		strh	r3, [sp, #32]	@ movhi
 620:Middlewares/ST/BlueNRG-MS/hci/controller/bluenrg_gatt_aci.c ****   rq.ocf = OCF_ATT_PREPARE_WRITE_REQ;
 1986              		.loc 1 620 3 is_stmt 1 view .LVU670
 1987              		.loc 1 620 10 is_stmt 0 view .LVU671
 1988 003a 4FF48873 		mov	r3, #272
 1989 003e ADF82230 		strh	r3, [sp, #34]	@ movhi
 621:Middlewares/ST/BlueNRG-MS/hci/controller/bluenrg_gatt_aci.c ****   rq.cparam = &cp;
 1990              		.loc 1 621 3 is_stmt 1 view .LVU672
 1991              		.loc 1 621 13 is_stmt 0 view .LVU673
 1992 0042 01AB     		add	r3, sp, #4
 1993 0044 0A93     		str	r3, [sp, #40]
 622:Middlewares/ST/BlueNRG-MS/hci/controller/bluenrg_gatt_aci.c ****   rq.clen = ATT_PREPARE_WRITE_REQ_CP_SIZE + attr_val_len;
 1994              		.loc 1 622 3 is_stmt 1 view .LVU674
 1995              		.loc 1 622 43 is_stmt 0 view .LVU675
 1996 0046 0734     		adds	r4, r4, #7
 1997              		.loc 1 622 11 view .LVU676
 1998 0048 0B94     		str	r4, [sp, #44]
 623:Middlewares/ST/BlueNRG-MS/hci/controller/bluenrg_gatt_aci.c ****   rq.rparam = &status;
 1999              		.loc 1 623 3 is_stmt 1 view .LVU677
 2000              		.loc 1 623 13 is_stmt 0 view .LVU678
 2001 004a 0DF11F03 		add	r3, sp, #31
 2002 004e 0C93     		str	r3, [sp, #48]
 624:Middlewares/ST/BlueNRG-MS/hci/controller/bluenrg_gatt_aci.c ****   rq.rlen = 1;
ARM GAS  /tmp/cc8W75dr.s 			page 47


 2003              		.loc 1 624 3 is_stmt 1 view .LVU679
 2004              		.loc 1 624 11 is_stmt 0 view .LVU680
 2005 0050 0123     		movs	r3, #1
 2006 0052 0D93     		str	r3, [sp, #52]
 625:Middlewares/ST/BlueNRG-MS/hci/controller/bluenrg_gatt_aci.c **** 
 626:Middlewares/ST/BlueNRG-MS/hci/controller/bluenrg_gatt_aci.c ****   if (hci_send_req(&rq, FALSE) < 0)
 2007              		.loc 1 626 3 is_stmt 1 view .LVU681
 2008              		.loc 1 626 7 is_stmt 0 view .LVU682
 2009 0054 08A8     		add	r0, sp, #32
 2010 0056 FFF7FEFF 		bl	hci_send_req
 2011              	.LVL151:
 2012              		.loc 1 626 6 view .LVU683
 2013 005a 0028     		cmp	r0, #0
 2014 005c 05DB     		blt	.L88
 627:Middlewares/ST/BlueNRG-MS/hci/controller/bluenrg_gatt_aci.c ****     return BLE_STATUS_TIMEOUT;
 628:Middlewares/ST/BlueNRG-MS/hci/controller/bluenrg_gatt_aci.c **** 
 629:Middlewares/ST/BlueNRG-MS/hci/controller/bluenrg_gatt_aci.c ****   return status;
 2015              		.loc 1 629 3 is_stmt 1 view .LVU684
 2016              		.loc 1 629 10 is_stmt 0 view .LVU685
 2017 005e 9DF81F00 		ldrb	r0, [sp, #31]	@ zero_extendqisi2
 2018              	.L86:
 630:Middlewares/ST/BlueNRG-MS/hci/controller/bluenrg_gatt_aci.c **** }
 2019              		.loc 1 630 1 view .LVU686
 2020 0062 0EB0     		add	sp, sp, #56
 2021              	.LCFI63:
 2022              		.cfi_def_cfa_offset 8
 2023              		@ sp needed
 2024 0064 10BD     		pop	{r4, pc}
 2025              	.LVL152:
 2026              	.L87:
 2027              	.LCFI64:
 2028              		.cfi_def_cfa_offset 0
 2029              		.cfi_restore 4
 2030              		.cfi_restore 14
 610:Middlewares/ST/BlueNRG-MS/hci/controller/bluenrg_gatt_aci.c **** 
 2031              		.loc 1 610 12 view .LVU687
 2032 0066 4220     		movs	r0, #66
 2033              	.LVL153:
 2034              		.loc 1 630 1 view .LVU688
 2035 0068 7047     		bx	lr
 2036              	.LVL154:
 2037              	.L88:
 2038              	.LCFI65:
 2039              		.cfi_def_cfa_offset 64
 2040              		.cfi_offset 4, -8
 2041              		.cfi_offset 14, -4
 627:Middlewares/ST/BlueNRG-MS/hci/controller/bluenrg_gatt_aci.c ****     return BLE_STATUS_TIMEOUT;
 2042              		.loc 1 627 12 view .LVU689
 2043 006a FF20     		movs	r0, #255
 2044 006c F9E7     		b	.L86
 2045              		.cfi_endproc
 2046              	.LFE307:
 2048              		.section	.text.aci_att_execute_write_req,"ax",%progbits
 2049              		.align	1
 2050              		.global	aci_att_execute_write_req
 2051              		.syntax unified
 2052              		.thumb
ARM GAS  /tmp/cc8W75dr.s 			page 48


 2053              		.thumb_func
 2055              	aci_att_execute_write_req:
 2056              	.LVL155:
 2057              	.LFB308:
 631:Middlewares/ST/BlueNRG-MS/hci/controller/bluenrg_gatt_aci.c **** 
 632:Middlewares/ST/BlueNRG-MS/hci/controller/bluenrg_gatt_aci.c **** tBleStatus aci_att_execute_write_req(uint16_t conn_handle, uint8_t execute)
 633:Middlewares/ST/BlueNRG-MS/hci/controller/bluenrg_gatt_aci.c **** {
 2058              		.loc 1 633 1 is_stmt 1 view -0
 2059              		.cfi_startproc
 2060              		@ args = 0, pretend = 0, frame = 32
 2061              		@ frame_needed = 0, uses_anonymous_args = 0
 2062              		.loc 1 633 1 is_stmt 0 view .LVU691
 2063 0000 00B5     		push	{lr}
 2064              	.LCFI66:
 2065              		.cfi_def_cfa_offset 4
 2066              		.cfi_offset 14, -4
 2067 0002 89B0     		sub	sp, sp, #36
 2068              	.LCFI67:
 2069              		.cfi_def_cfa_offset 40
 634:Middlewares/ST/BlueNRG-MS/hci/controller/bluenrg_gatt_aci.c ****   struct hci_request rq;
 2070              		.loc 1 634 3 is_stmt 1 view .LVU692
 635:Middlewares/ST/BlueNRG-MS/hci/controller/bluenrg_gatt_aci.c ****   uint8_t status;
 2071              		.loc 1 635 3 view .LVU693
 636:Middlewares/ST/BlueNRG-MS/hci/controller/bluenrg_gatt_aci.c ****   att_execute_write_req_cp cp;
 2072              		.loc 1 636 3 view .LVU694
 637:Middlewares/ST/BlueNRG-MS/hci/controller/bluenrg_gatt_aci.c **** 
 638:Middlewares/ST/BlueNRG-MS/hci/controller/bluenrg_gatt_aci.c ****   cp.conn_handle = htobs(conn_handle);
 2073              		.loc 1 638 3 view .LVU695
 2074              		.loc 1 638 18 is_stmt 0 view .LVU696
 2075 0004 ADF80400 		strh	r0, [sp, #4]	@ movhi
 639:Middlewares/ST/BlueNRG-MS/hci/controller/bluenrg_gatt_aci.c ****   cp.execute = execute;
 2076              		.loc 1 639 3 is_stmt 1 view .LVU697
 2077              		.loc 1 639 14 is_stmt 0 view .LVU698
 2078 0008 8DF80610 		strb	r1, [sp, #6]
 640:Middlewares/ST/BlueNRG-MS/hci/controller/bluenrg_gatt_aci.c **** 
 641:Middlewares/ST/BlueNRG-MS/hci/controller/bluenrg_gatt_aci.c ****   BLUENRG_memset(&rq, 0, sizeof(rq));
 2079              		.loc 1 641 3 is_stmt 1 view .LVU699
 2080 000c 0021     		movs	r1, #0
 2081              	.LVL156:
 2082              		.loc 1 641 3 is_stmt 0 view .LVU700
 2083 000e 0291     		str	r1, [sp, #8]
 2084 0010 0391     		str	r1, [sp, #12]
 2085 0012 0491     		str	r1, [sp, #16]
 2086 0014 0591     		str	r1, [sp, #20]
 2087 0016 0691     		str	r1, [sp, #24]
 2088 0018 0791     		str	r1, [sp, #28]
 642:Middlewares/ST/BlueNRG-MS/hci/controller/bluenrg_gatt_aci.c ****   rq.ogf = OGF_VENDOR_CMD;
 2089              		.loc 1 642 3 is_stmt 1 view .LVU701
 2090              		.loc 1 642 10 is_stmt 0 view .LVU702
 2091 001a 3F23     		movs	r3, #63
 2092 001c ADF80830 		strh	r3, [sp, #8]	@ movhi
 643:Middlewares/ST/BlueNRG-MS/hci/controller/bluenrg_gatt_aci.c ****   rq.ocf = OCF_ATT_EXECUTE_WRITE_REQ;
 2093              		.loc 1 643 3 is_stmt 1 view .LVU703
 2094              		.loc 1 643 10 is_stmt 0 view .LVU704
 2095 0020 40F21113 		movw	r3, #273
 2096 0024 ADF80A30 		strh	r3, [sp, #10]	@ movhi
 644:Middlewares/ST/BlueNRG-MS/hci/controller/bluenrg_gatt_aci.c ****   rq.cparam = &cp;
ARM GAS  /tmp/cc8W75dr.s 			page 49


 2097              		.loc 1 644 3 is_stmt 1 view .LVU705
 2098              		.loc 1 644 13 is_stmt 0 view .LVU706
 2099 0028 01AB     		add	r3, sp, #4
 2100 002a 0493     		str	r3, [sp, #16]
 645:Middlewares/ST/BlueNRG-MS/hci/controller/bluenrg_gatt_aci.c ****   rq.clen = ATT_EXECUTE_WRITE_REQ_CP_SIZE;
 2101              		.loc 1 645 3 is_stmt 1 view .LVU707
 2102              		.loc 1 645 11 is_stmt 0 view .LVU708
 2103 002c 0323     		movs	r3, #3
 2104 002e 0593     		str	r3, [sp, #20]
 646:Middlewares/ST/BlueNRG-MS/hci/controller/bluenrg_gatt_aci.c ****   rq.rparam = &status;
 2105              		.loc 1 646 3 is_stmt 1 view .LVU709
 2106              		.loc 1 646 13 is_stmt 0 view .LVU710
 2107 0030 0DF10703 		add	r3, sp, #7
 2108 0034 0693     		str	r3, [sp, #24]
 647:Middlewares/ST/BlueNRG-MS/hci/controller/bluenrg_gatt_aci.c ****   rq.rlen = 1;
 2109              		.loc 1 647 3 is_stmt 1 view .LVU711
 2110              		.loc 1 647 11 is_stmt 0 view .LVU712
 2111 0036 0123     		movs	r3, #1
 2112 0038 0793     		str	r3, [sp, #28]
 648:Middlewares/ST/BlueNRG-MS/hci/controller/bluenrg_gatt_aci.c **** 
 649:Middlewares/ST/BlueNRG-MS/hci/controller/bluenrg_gatt_aci.c ****   if (hci_send_req(&rq, FALSE) < 0)
 2113              		.loc 1 649 3 is_stmt 1 view .LVU713
 2114              		.loc 1 649 7 is_stmt 0 view .LVU714
 2115 003a 02A8     		add	r0, sp, #8
 2116              	.LVL157:
 2117              		.loc 1 649 7 view .LVU715
 2118 003c FFF7FEFF 		bl	hci_send_req
 2119              	.LVL158:
 2120              		.loc 1 649 6 view .LVU716
 2121 0040 0028     		cmp	r0, #0
 2122 0042 04DB     		blt	.L95
 650:Middlewares/ST/BlueNRG-MS/hci/controller/bluenrg_gatt_aci.c ****     return BLE_STATUS_TIMEOUT;
 651:Middlewares/ST/BlueNRG-MS/hci/controller/bluenrg_gatt_aci.c **** 
 652:Middlewares/ST/BlueNRG-MS/hci/controller/bluenrg_gatt_aci.c ****   return status;
 2123              		.loc 1 652 3 is_stmt 1 view .LVU717
 2124              		.loc 1 652 10 is_stmt 0 view .LVU718
 2125 0044 9DF80700 		ldrb	r0, [sp, #7]	@ zero_extendqisi2
 2126              	.L94:
 653:Middlewares/ST/BlueNRG-MS/hci/controller/bluenrg_gatt_aci.c **** }
 2127              		.loc 1 653 1 view .LVU719
 2128 0048 09B0     		add	sp, sp, #36
 2129              	.LCFI68:
 2130              		.cfi_remember_state
 2131              		.cfi_def_cfa_offset 4
 2132              		@ sp needed
 2133 004a 5DF804FB 		ldr	pc, [sp], #4
 2134              	.L95:
 2135              	.LCFI69:
 2136              		.cfi_restore_state
 650:Middlewares/ST/BlueNRG-MS/hci/controller/bluenrg_gatt_aci.c ****     return BLE_STATUS_TIMEOUT;
 2137              		.loc 1 650 12 view .LVU720
 2138 004e FF20     		movs	r0, #255
 2139 0050 FAE7     		b	.L94
 2140              		.cfi_endproc
 2141              	.LFE308:
 2143              		.section	.text.aci_gatt_disc_all_prim_services,"ax",%progbits
 2144              		.align	1
ARM GAS  /tmp/cc8W75dr.s 			page 50


 2145              		.global	aci_gatt_disc_all_prim_services
 2146              		.syntax unified
 2147              		.thumb
 2148              		.thumb_func
 2150              	aci_gatt_disc_all_prim_services:
 2151              	.LVL159:
 2152              	.LFB309:
 654:Middlewares/ST/BlueNRG-MS/hci/controller/bluenrg_gatt_aci.c **** 
 655:Middlewares/ST/BlueNRG-MS/hci/controller/bluenrg_gatt_aci.c **** tBleStatus aci_gatt_disc_all_prim_services(uint16_t conn_handle)
 656:Middlewares/ST/BlueNRG-MS/hci/controller/bluenrg_gatt_aci.c **** {
 2153              		.loc 1 656 1 is_stmt 1 view -0
 2154              		.cfi_startproc
 2155              		@ args = 0, pretend = 0, frame = 32
 2156              		@ frame_needed = 0, uses_anonymous_args = 0
 2157              		.loc 1 656 1 is_stmt 0 view .LVU722
 2158 0000 00B5     		push	{lr}
 2159              	.LCFI70:
 2160              		.cfi_def_cfa_offset 4
 2161              		.cfi_offset 14, -4
 2162 0002 89B0     		sub	sp, sp, #36
 2163              	.LCFI71:
 2164              		.cfi_def_cfa_offset 40
 657:Middlewares/ST/BlueNRG-MS/hci/controller/bluenrg_gatt_aci.c ****   struct hci_request rq;
 2165              		.loc 1 657 3 is_stmt 1 view .LVU723
 658:Middlewares/ST/BlueNRG-MS/hci/controller/bluenrg_gatt_aci.c ****   uint8_t status;
 2166              		.loc 1 658 3 view .LVU724
 659:Middlewares/ST/BlueNRG-MS/hci/controller/bluenrg_gatt_aci.c ****   gatt_disc_all_prim_services_cp cp;
 2167              		.loc 1 659 3 view .LVU725
 660:Middlewares/ST/BlueNRG-MS/hci/controller/bluenrg_gatt_aci.c **** 
 661:Middlewares/ST/BlueNRG-MS/hci/controller/bluenrg_gatt_aci.c ****   cp.conn_handle = htobs(conn_handle);
 2168              		.loc 1 661 3 view .LVU726
 2169              		.loc 1 661 18 is_stmt 0 view .LVU727
 2170 0004 ADF80400 		strh	r0, [sp, #4]	@ movhi
 662:Middlewares/ST/BlueNRG-MS/hci/controller/bluenrg_gatt_aci.c **** 
 663:Middlewares/ST/BlueNRG-MS/hci/controller/bluenrg_gatt_aci.c ****   BLUENRG_memset(&rq, 0, sizeof(rq));
 2171              		.loc 1 663 3 is_stmt 1 view .LVU728
 2172 0008 0021     		movs	r1, #0
 2173 000a 0291     		str	r1, [sp, #8]
 2174 000c 0391     		str	r1, [sp, #12]
 2175 000e 0491     		str	r1, [sp, #16]
 2176 0010 0591     		str	r1, [sp, #20]
 2177 0012 0691     		str	r1, [sp, #24]
 2178 0014 0791     		str	r1, [sp, #28]
 664:Middlewares/ST/BlueNRG-MS/hci/controller/bluenrg_gatt_aci.c ****   rq.ogf = OGF_VENDOR_CMD;
 2179              		.loc 1 664 3 view .LVU729
 2180              		.loc 1 664 10 is_stmt 0 view .LVU730
 2181 0016 3F23     		movs	r3, #63
 2182 0018 ADF80830 		strh	r3, [sp, #8]	@ movhi
 665:Middlewares/ST/BlueNRG-MS/hci/controller/bluenrg_gatt_aci.c ****   rq.ocf = OCF_GATT_DISC_ALL_PRIM_SERVICES;
 2183              		.loc 1 665 3 is_stmt 1 view .LVU731
 2184              		.loc 1 665 10 is_stmt 0 view .LVU732
 2185 001c 4FF48973 		mov	r3, #274
 2186 0020 ADF80A30 		strh	r3, [sp, #10]	@ movhi
 666:Middlewares/ST/BlueNRG-MS/hci/controller/bluenrg_gatt_aci.c ****   rq.cparam = &cp;
 2187              		.loc 1 666 3 is_stmt 1 view .LVU733
 2188              		.loc 1 666 13 is_stmt 0 view .LVU734
 2189 0024 01AB     		add	r3, sp, #4
ARM GAS  /tmp/cc8W75dr.s 			page 51


 2190 0026 0493     		str	r3, [sp, #16]
 667:Middlewares/ST/BlueNRG-MS/hci/controller/bluenrg_gatt_aci.c ****   rq.clen = GATT_DISC_ALL_PRIM_SERVICES_CP_SIZE;
 2191              		.loc 1 667 3 is_stmt 1 view .LVU735
 2192              		.loc 1 667 11 is_stmt 0 view .LVU736
 2193 0028 0223     		movs	r3, #2
 2194 002a 0593     		str	r3, [sp, #20]
 668:Middlewares/ST/BlueNRG-MS/hci/controller/bluenrg_gatt_aci.c ****   rq.event = EVT_CMD_STATUS;
 2195              		.loc 1 668 3 is_stmt 1 view .LVU737
 2196              		.loc 1 668 12 is_stmt 0 view .LVU738
 2197 002c 0F23     		movs	r3, #15
 2198 002e 0393     		str	r3, [sp, #12]
 669:Middlewares/ST/BlueNRG-MS/hci/controller/bluenrg_gatt_aci.c ****   rq.rparam = &status;
 2199              		.loc 1 669 3 is_stmt 1 view .LVU739
 2200              		.loc 1 669 13 is_stmt 0 view .LVU740
 2201 0030 0DF10703 		add	r3, sp, #7
 2202 0034 0693     		str	r3, [sp, #24]
 670:Middlewares/ST/BlueNRG-MS/hci/controller/bluenrg_gatt_aci.c ****   rq.rlen = 1;
 2203              		.loc 1 670 3 is_stmt 1 view .LVU741
 2204              		.loc 1 670 11 is_stmt 0 view .LVU742
 2205 0036 0123     		movs	r3, #1
 2206 0038 0793     		str	r3, [sp, #28]
 671:Middlewares/ST/BlueNRG-MS/hci/controller/bluenrg_gatt_aci.c **** 
 672:Middlewares/ST/BlueNRG-MS/hci/controller/bluenrg_gatt_aci.c ****   if (hci_send_req(&rq, FALSE) < 0)
 2207              		.loc 1 672 3 is_stmt 1 view .LVU743
 2208              		.loc 1 672 7 is_stmt 0 view .LVU744
 2209 003a 02A8     		add	r0, sp, #8
 2210              	.LVL160:
 2211              		.loc 1 672 7 view .LVU745
 2212 003c FFF7FEFF 		bl	hci_send_req
 2213              	.LVL161:
 2214              		.loc 1 672 6 view .LVU746
 2215 0040 0028     		cmp	r0, #0
 2216 0042 04DB     		blt	.L99
 673:Middlewares/ST/BlueNRG-MS/hci/controller/bluenrg_gatt_aci.c ****     return BLE_STATUS_TIMEOUT;
 674:Middlewares/ST/BlueNRG-MS/hci/controller/bluenrg_gatt_aci.c **** 
 675:Middlewares/ST/BlueNRG-MS/hci/controller/bluenrg_gatt_aci.c ****   return status;
 2217              		.loc 1 675 3 is_stmt 1 view .LVU747
 2218              		.loc 1 675 10 is_stmt 0 view .LVU748
 2219 0044 9DF80700 		ldrb	r0, [sp, #7]	@ zero_extendqisi2
 2220              	.L98:
 676:Middlewares/ST/BlueNRG-MS/hci/controller/bluenrg_gatt_aci.c **** }
 2221              		.loc 1 676 1 view .LVU749
 2222 0048 09B0     		add	sp, sp, #36
 2223              	.LCFI72:
 2224              		.cfi_remember_state
 2225              		.cfi_def_cfa_offset 4
 2226              		@ sp needed
 2227 004a 5DF804FB 		ldr	pc, [sp], #4
 2228              	.L99:
 2229              	.LCFI73:
 2230              		.cfi_restore_state
 673:Middlewares/ST/BlueNRG-MS/hci/controller/bluenrg_gatt_aci.c ****     return BLE_STATUS_TIMEOUT;
 2231              		.loc 1 673 12 view .LVU750
 2232 004e FF20     		movs	r0, #255
 2233 0050 FAE7     		b	.L98
 2234              		.cfi_endproc
 2235              	.LFE309:
ARM GAS  /tmp/cc8W75dr.s 			page 52


 2237              		.section	.text.aci_gatt_disc_prim_service_by_uuid,"ax",%progbits
 2238              		.align	1
 2239              		.global	aci_gatt_disc_prim_service_by_uuid
 2240              		.syntax unified
 2241              		.thumb
 2242              		.thumb_func
 2244              	aci_gatt_disc_prim_service_by_uuid:
 2245              	.LVL162:
 2246              	.LFB310:
 677:Middlewares/ST/BlueNRG-MS/hci/controller/bluenrg_gatt_aci.c **** 
 678:Middlewares/ST/BlueNRG-MS/hci/controller/bluenrg_gatt_aci.c **** tBleStatus aci_gatt_disc_prim_service_by_uuid(uint16_t conn_handle, uint8_t uuid_type, uint8_t* uui
 679:Middlewares/ST/BlueNRG-MS/hci/controller/bluenrg_gatt_aci.c **** {
 2247              		.loc 1 679 1 is_stmt 1 view -0
 2248              		.cfi_startproc
 2249              		@ args = 0, pretend = 0, frame = 48
 2250              		@ frame_needed = 0, uses_anonymous_args = 0
 2251              		.loc 1 679 1 is_stmt 0 view .LVU752
 2252 0000 10B5     		push	{r4, lr}
 2253              	.LCFI74:
 2254              		.cfi_def_cfa_offset 8
 2255              		.cfi_offset 4, -8
 2256              		.cfi_offset 14, -4
 2257 0002 8CB0     		sub	sp, sp, #48
 2258              	.LCFI75:
 2259              		.cfi_def_cfa_offset 56
 2260 0004 0B46     		mov	r3, r1
 2261 0006 1146     		mov	r1, r2
 2262              	.LVL163:
 680:Middlewares/ST/BlueNRG-MS/hci/controller/bluenrg_gatt_aci.c ****   struct hci_request rq;
 2263              		.loc 1 680 3 is_stmt 1 view .LVU753
 681:Middlewares/ST/BlueNRG-MS/hci/controller/bluenrg_gatt_aci.c ****   uint8_t status;
 2264              		.loc 1 681 3 view .LVU754
 682:Middlewares/ST/BlueNRG-MS/hci/controller/bluenrg_gatt_aci.c ****   gatt_disc_prim_service_by_uuid_cp cp;
 2265              		.loc 1 682 3 view .LVU755
 683:Middlewares/ST/BlueNRG-MS/hci/controller/bluenrg_gatt_aci.c ****   uint8_t uuid_len;
 2266              		.loc 1 683 3 view .LVU756
 684:Middlewares/ST/BlueNRG-MS/hci/controller/bluenrg_gatt_aci.c ****   
 685:Middlewares/ST/BlueNRG-MS/hci/controller/bluenrg_gatt_aci.c ****   if(uuid_type == UUID_TYPE_16){
 2267              		.loc 1 685 3 view .LVU757
 2268              		.loc 1 685 5 is_stmt 0 view .LVU758
 2269 0008 012B     		cmp	r3, #1
 2270 000a 2BD0     		beq	.L107
 686:Middlewares/ST/BlueNRG-MS/hci/controller/bluenrg_gatt_aci.c ****     uuid_len = 2;
 687:Middlewares/ST/BlueNRG-MS/hci/controller/bluenrg_gatt_aci.c ****   }
 688:Middlewares/ST/BlueNRG-MS/hci/controller/bluenrg_gatt_aci.c ****   else{
 689:Middlewares/ST/BlueNRG-MS/hci/controller/bluenrg_gatt_aci.c ****     uuid_len = 16;
 2271              		.loc 1 689 14 view .LVU759
 2272 000c 1024     		movs	r4, #16
 2273              	.L102:
 2274              	.LVL164:
 690:Middlewares/ST/BlueNRG-MS/hci/controller/bluenrg_gatt_aci.c ****   }
 691:Middlewares/ST/BlueNRG-MS/hci/controller/bluenrg_gatt_aci.c **** 
 692:Middlewares/ST/BlueNRG-MS/hci/controller/bluenrg_gatt_aci.c ****   cp.conn_handle = htobs(conn_handle);
 2275              		.loc 1 692 3 is_stmt 1 view .LVU760
 2276              		.loc 1 692 18 is_stmt 0 view .LVU761
 2277 000e ADF80400 		strh	r0, [sp, #4]	@ movhi
 693:Middlewares/ST/BlueNRG-MS/hci/controller/bluenrg_gatt_aci.c ****   cp.uuid_type = uuid_type;
ARM GAS  /tmp/cc8W75dr.s 			page 53


 2278              		.loc 1 693 3 is_stmt 1 view .LVU762
 2279              		.loc 1 693 16 is_stmt 0 view .LVU763
 2280 0012 8DF80630 		strb	r3, [sp, #6]
 694:Middlewares/ST/BlueNRG-MS/hci/controller/bluenrg_gatt_aci.c ****   BLUENRG_memcpy(cp.uuid, uuid, uuid_len);
 2281              		.loc 1 694 3 is_stmt 1 view .LVU764
 2282 0016 2246     		mov	r2, r4
 2283              	.LVL165:
 2284              		.loc 1 694 3 is_stmt 0 view .LVU765
 2285 0018 0DF10700 		add	r0, sp, #7
 2286              	.LVL166:
 2287              		.loc 1 694 3 view .LVU766
 2288 001c FFF7FEFF 		bl	memcpy
 2289              	.LVL167:
 695:Middlewares/ST/BlueNRG-MS/hci/controller/bluenrg_gatt_aci.c **** 
 696:Middlewares/ST/BlueNRG-MS/hci/controller/bluenrg_gatt_aci.c ****   BLUENRG_memset(&rq, 0, sizeof(rq));
 2290              		.loc 1 696 3 is_stmt 1 view .LVU767
 2291 0020 0021     		movs	r1, #0
 2292 0022 0691     		str	r1, [sp, #24]
 2293 0024 0791     		str	r1, [sp, #28]
 2294 0026 0891     		str	r1, [sp, #32]
 2295 0028 0991     		str	r1, [sp, #36]
 2296 002a 0A91     		str	r1, [sp, #40]
 2297 002c 0B91     		str	r1, [sp, #44]
 697:Middlewares/ST/BlueNRG-MS/hci/controller/bluenrg_gatt_aci.c ****   rq.ogf = OGF_VENDOR_CMD;
 2298              		.loc 1 697 3 view .LVU768
 2299              		.loc 1 697 10 is_stmt 0 view .LVU769
 2300 002e 3F23     		movs	r3, #63
 2301 0030 ADF81830 		strh	r3, [sp, #24]	@ movhi
 698:Middlewares/ST/BlueNRG-MS/hci/controller/bluenrg_gatt_aci.c ****   rq.ocf = OCF_GATT_DISC_PRIM_SERVICE_BY_UUID;
 2302              		.loc 1 698 3 is_stmt 1 view .LVU770
 2303              		.loc 1 698 10 is_stmt 0 view .LVU771
 2304 0034 40F21313 		movw	r3, #275
 2305 0038 ADF81A30 		strh	r3, [sp, #26]	@ movhi
 699:Middlewares/ST/BlueNRG-MS/hci/controller/bluenrg_gatt_aci.c ****   rq.cparam = &cp;
 2306              		.loc 1 699 3 is_stmt 1 view .LVU772
 2307              		.loc 1 699 13 is_stmt 0 view .LVU773
 2308 003c 01AB     		add	r3, sp, #4
 2309 003e 0893     		str	r3, [sp, #32]
 700:Middlewares/ST/BlueNRG-MS/hci/controller/bluenrg_gatt_aci.c ****   rq.clen = GATT_DISC_PRIM_SERVICE_BY_UUID_CP_SIZE + uuid_len;
 2310              		.loc 1 700 3 is_stmt 1 view .LVU774
 2311              		.loc 1 700 52 is_stmt 0 view .LVU775
 2312 0040 0334     		adds	r4, r4, #3
 2313              	.LVL168:
 2314              		.loc 1 700 11 view .LVU776
 2315 0042 0994     		str	r4, [sp, #36]
 701:Middlewares/ST/BlueNRG-MS/hci/controller/bluenrg_gatt_aci.c ****   rq.event = EVT_CMD_STATUS;
 2316              		.loc 1 701 3 is_stmt 1 view .LVU777
 2317              		.loc 1 701 12 is_stmt 0 view .LVU778
 2318 0044 0F23     		movs	r3, #15
 2319 0046 0793     		str	r3, [sp, #28]
 702:Middlewares/ST/BlueNRG-MS/hci/controller/bluenrg_gatt_aci.c ****   rq.rparam = &status;
 2320              		.loc 1 702 3 is_stmt 1 view .LVU779
 2321              		.loc 1 702 13 is_stmt 0 view .LVU780
 2322 0048 0DF11703 		add	r3, sp, #23
 2323 004c 0A93     		str	r3, [sp, #40]
 703:Middlewares/ST/BlueNRG-MS/hci/controller/bluenrg_gatt_aci.c ****   rq.rlen = 1;
 2324              		.loc 1 703 3 is_stmt 1 view .LVU781
ARM GAS  /tmp/cc8W75dr.s 			page 54


 2325              		.loc 1 703 11 is_stmt 0 view .LVU782
 2326 004e 0123     		movs	r3, #1
 2327 0050 0B93     		str	r3, [sp, #44]
 704:Middlewares/ST/BlueNRG-MS/hci/controller/bluenrg_gatt_aci.c **** 
 705:Middlewares/ST/BlueNRG-MS/hci/controller/bluenrg_gatt_aci.c ****   if (hci_send_req(&rq, FALSE) < 0)
 2328              		.loc 1 705 3 is_stmt 1 view .LVU783
 2329              		.loc 1 705 7 is_stmt 0 view .LVU784
 2330 0052 06A8     		add	r0, sp, #24
 2331 0054 FFF7FEFF 		bl	hci_send_req
 2332              	.LVL169:
 2333              		.loc 1 705 6 view .LVU785
 2334 0058 0028     		cmp	r0, #0
 2335 005a 05DB     		blt	.L105
 706:Middlewares/ST/BlueNRG-MS/hci/controller/bluenrg_gatt_aci.c ****     return BLE_STATUS_TIMEOUT;
 707:Middlewares/ST/BlueNRG-MS/hci/controller/bluenrg_gatt_aci.c **** 
 708:Middlewares/ST/BlueNRG-MS/hci/controller/bluenrg_gatt_aci.c ****   return status;
 2336              		.loc 1 708 3 is_stmt 1 view .LVU786
 2337              		.loc 1 708 10 is_stmt 0 view .LVU787
 2338 005c 9DF81700 		ldrb	r0, [sp, #23]	@ zero_extendqisi2
 2339              	.L103:
 709:Middlewares/ST/BlueNRG-MS/hci/controller/bluenrg_gatt_aci.c **** }
 2340              		.loc 1 709 1 view .LVU788
 2341 0060 0CB0     		add	sp, sp, #48
 2342              	.LCFI76:
 2343              		.cfi_remember_state
 2344              		.cfi_def_cfa_offset 8
 2345              		@ sp needed
 2346 0062 10BD     		pop	{r4, pc}
 2347              	.LVL170:
 2348              	.L107:
 2349              	.LCFI77:
 2350              		.cfi_restore_state
 686:Middlewares/ST/BlueNRG-MS/hci/controller/bluenrg_gatt_aci.c ****   }
 2351              		.loc 1 686 14 view .LVU789
 2352 0064 0224     		movs	r4, #2
 2353 0066 D2E7     		b	.L102
 2354              	.LVL171:
 2355              	.L105:
 706:Middlewares/ST/BlueNRG-MS/hci/controller/bluenrg_gatt_aci.c ****     return BLE_STATUS_TIMEOUT;
 2356              		.loc 1 706 12 view .LVU790
 2357 0068 FF20     		movs	r0, #255
 2358 006a F9E7     		b	.L103
 2359              		.cfi_endproc
 2360              	.LFE310:
 2362              		.section	.text.aci_gatt_find_included_services,"ax",%progbits
 2363              		.align	1
 2364              		.global	aci_gatt_find_included_services
 2365              		.syntax unified
 2366              		.thumb
 2367              		.thumb_func
 2369              	aci_gatt_find_included_services:
 2370              	.LVL172:
 2371              	.LFB311:
 710:Middlewares/ST/BlueNRG-MS/hci/controller/bluenrg_gatt_aci.c **** 
 711:Middlewares/ST/BlueNRG-MS/hci/controller/bluenrg_gatt_aci.c **** tBleStatus aci_gatt_find_included_services(uint16_t conn_handle, uint16_t start_service_handle, 
 712:Middlewares/ST/BlueNRG-MS/hci/controller/bluenrg_gatt_aci.c **** 					   uint16_t end_service_handle)
 713:Middlewares/ST/BlueNRG-MS/hci/controller/bluenrg_gatt_aci.c **** {
ARM GAS  /tmp/cc8W75dr.s 			page 55


 2372              		.loc 1 713 1 is_stmt 1 view -0
 2373              		.cfi_startproc
 2374              		@ args = 0, pretend = 0, frame = 32
 2375              		@ frame_needed = 0, uses_anonymous_args = 0
 2376              		.loc 1 713 1 is_stmt 0 view .LVU792
 2377 0000 00B5     		push	{lr}
 2378              	.LCFI78:
 2379              		.cfi_def_cfa_offset 4
 2380              		.cfi_offset 14, -4
 2381 0002 89B0     		sub	sp, sp, #36
 2382              	.LCFI79:
 2383              		.cfi_def_cfa_offset 40
 714:Middlewares/ST/BlueNRG-MS/hci/controller/bluenrg_gatt_aci.c ****   struct hci_request rq;
 2384              		.loc 1 714 3 is_stmt 1 view .LVU793
 715:Middlewares/ST/BlueNRG-MS/hci/controller/bluenrg_gatt_aci.c ****   uint8_t status;
 2385              		.loc 1 715 3 view .LVU794
 716:Middlewares/ST/BlueNRG-MS/hci/controller/bluenrg_gatt_aci.c ****   gatt_find_included_services_cp cp;
 2386              		.loc 1 716 3 view .LVU795
 717:Middlewares/ST/BlueNRG-MS/hci/controller/bluenrg_gatt_aci.c **** 
 718:Middlewares/ST/BlueNRG-MS/hci/controller/bluenrg_gatt_aci.c ****   cp.conn_handle = htobs(conn_handle);
 2387              		.loc 1 718 3 view .LVU796
 2388              		.loc 1 718 18 is_stmt 0 view .LVU797
 2389 0004 ADF80000 		strh	r0, [sp]	@ movhi
 719:Middlewares/ST/BlueNRG-MS/hci/controller/bluenrg_gatt_aci.c ****   cp.start_handle = htobs(start_service_handle);
 2390              		.loc 1 719 3 is_stmt 1 view .LVU798
 2391              		.loc 1 719 19 is_stmt 0 view .LVU799
 2392 0008 ADF80210 		strh	r1, [sp, #2]	@ movhi
 720:Middlewares/ST/BlueNRG-MS/hci/controller/bluenrg_gatt_aci.c ****   cp.end_handle = htobs(end_service_handle);
 2393              		.loc 1 720 3 is_stmt 1 view .LVU800
 2394              		.loc 1 720 17 is_stmt 0 view .LVU801
 2395 000c ADF80420 		strh	r2, [sp, #4]	@ movhi
 721:Middlewares/ST/BlueNRG-MS/hci/controller/bluenrg_gatt_aci.c **** 
 722:Middlewares/ST/BlueNRG-MS/hci/controller/bluenrg_gatt_aci.c ****   BLUENRG_memset(&rq, 0, sizeof(rq));
 2396              		.loc 1 722 3 is_stmt 1 view .LVU802
 2397 0010 0021     		movs	r1, #0
 2398              	.LVL173:
 2399              		.loc 1 722 3 is_stmt 0 view .LVU803
 2400 0012 0291     		str	r1, [sp, #8]
 2401 0014 0391     		str	r1, [sp, #12]
 2402 0016 0491     		str	r1, [sp, #16]
 2403 0018 0591     		str	r1, [sp, #20]
 2404 001a 0691     		str	r1, [sp, #24]
 2405 001c 0791     		str	r1, [sp, #28]
 723:Middlewares/ST/BlueNRG-MS/hci/controller/bluenrg_gatt_aci.c ****   rq.ogf = OGF_VENDOR_CMD;
 2406              		.loc 1 723 3 is_stmt 1 view .LVU804
 2407              		.loc 1 723 10 is_stmt 0 view .LVU805
 2408 001e 3F23     		movs	r3, #63
 2409 0020 ADF80830 		strh	r3, [sp, #8]	@ movhi
 724:Middlewares/ST/BlueNRG-MS/hci/controller/bluenrg_gatt_aci.c ****   rq.ocf = OCF_GATT_FIND_INCLUDED_SERVICES;
 2410              		.loc 1 724 3 is_stmt 1 view .LVU806
 2411              		.loc 1 724 10 is_stmt 0 view .LVU807
 2412 0024 4FF48A73 		mov	r3, #276
 2413 0028 ADF80A30 		strh	r3, [sp, #10]	@ movhi
 725:Middlewares/ST/BlueNRG-MS/hci/controller/bluenrg_gatt_aci.c ****   rq.cparam = &cp;
 2414              		.loc 1 725 3 is_stmt 1 view .LVU808
 2415              		.loc 1 725 13 is_stmt 0 view .LVU809
 2416 002c CDF810D0 		str	sp, [sp, #16]
ARM GAS  /tmp/cc8W75dr.s 			page 56


 726:Middlewares/ST/BlueNRG-MS/hci/controller/bluenrg_gatt_aci.c ****   rq.clen = GATT_FIND_INCLUDED_SERVICES_CP_SIZE;
 2417              		.loc 1 726 3 is_stmt 1 view .LVU810
 2418              		.loc 1 726 11 is_stmt 0 view .LVU811
 2419 0030 0623     		movs	r3, #6
 2420 0032 0593     		str	r3, [sp, #20]
 727:Middlewares/ST/BlueNRG-MS/hci/controller/bluenrg_gatt_aci.c ****   rq.event = EVT_CMD_STATUS;
 2421              		.loc 1 727 3 is_stmt 1 view .LVU812
 2422              		.loc 1 727 12 is_stmt 0 view .LVU813
 2423 0034 0F23     		movs	r3, #15
 2424 0036 0393     		str	r3, [sp, #12]
 728:Middlewares/ST/BlueNRG-MS/hci/controller/bluenrg_gatt_aci.c ****   rq.rparam = &status;
 2425              		.loc 1 728 3 is_stmt 1 view .LVU814
 2426              		.loc 1 728 13 is_stmt 0 view .LVU815
 2427 0038 0DF10703 		add	r3, sp, #7
 2428 003c 0693     		str	r3, [sp, #24]
 729:Middlewares/ST/BlueNRG-MS/hci/controller/bluenrg_gatt_aci.c ****   rq.rlen = 1;
 2429              		.loc 1 729 3 is_stmt 1 view .LVU816
 2430              		.loc 1 729 11 is_stmt 0 view .LVU817
 2431 003e 0123     		movs	r3, #1
 2432 0040 0793     		str	r3, [sp, #28]
 730:Middlewares/ST/BlueNRG-MS/hci/controller/bluenrg_gatt_aci.c **** 
 731:Middlewares/ST/BlueNRG-MS/hci/controller/bluenrg_gatt_aci.c ****   if (hci_send_req(&rq, FALSE) < 0)
 2433              		.loc 1 731 3 is_stmt 1 view .LVU818
 2434              		.loc 1 731 7 is_stmt 0 view .LVU819
 2435 0042 02A8     		add	r0, sp, #8
 2436              	.LVL174:
 2437              		.loc 1 731 7 view .LVU820
 2438 0044 FFF7FEFF 		bl	hci_send_req
 2439              	.LVL175:
 2440              		.loc 1 731 6 view .LVU821
 2441 0048 0028     		cmp	r0, #0
 2442 004a 04DB     		blt	.L110
 732:Middlewares/ST/BlueNRG-MS/hci/controller/bluenrg_gatt_aci.c ****     return BLE_STATUS_TIMEOUT;
 733:Middlewares/ST/BlueNRG-MS/hci/controller/bluenrg_gatt_aci.c **** 
 734:Middlewares/ST/BlueNRG-MS/hci/controller/bluenrg_gatt_aci.c ****   return status;
 2443              		.loc 1 734 3 is_stmt 1 view .LVU822
 2444              		.loc 1 734 10 is_stmt 0 view .LVU823
 2445 004c 9DF80700 		ldrb	r0, [sp, #7]	@ zero_extendqisi2
 2446              	.L109:
 735:Middlewares/ST/BlueNRG-MS/hci/controller/bluenrg_gatt_aci.c **** }
 2447              		.loc 1 735 1 view .LVU824
 2448 0050 09B0     		add	sp, sp, #36
 2449              	.LCFI80:
 2450              		.cfi_remember_state
 2451              		.cfi_def_cfa_offset 4
 2452              		@ sp needed
 2453 0052 5DF804FB 		ldr	pc, [sp], #4
 2454              	.L110:
 2455              	.LCFI81:
 2456              		.cfi_restore_state
 732:Middlewares/ST/BlueNRG-MS/hci/controller/bluenrg_gatt_aci.c ****     return BLE_STATUS_TIMEOUT;
 2457              		.loc 1 732 12 view .LVU825
 2458 0056 FF20     		movs	r0, #255
 2459 0058 FAE7     		b	.L109
 2460              		.cfi_endproc
 2461              	.LFE311:
 2463              		.section	.text.aci_gatt_disc_all_charac_of_serv,"ax",%progbits
ARM GAS  /tmp/cc8W75dr.s 			page 57


 2464              		.align	1
 2465              		.global	aci_gatt_disc_all_charac_of_serv
 2466              		.syntax unified
 2467              		.thumb
 2468              		.thumb_func
 2470              	aci_gatt_disc_all_charac_of_serv:
 2471              	.LVL176:
 2472              	.LFB312:
 736:Middlewares/ST/BlueNRG-MS/hci/controller/bluenrg_gatt_aci.c **** 
 737:Middlewares/ST/BlueNRG-MS/hci/controller/bluenrg_gatt_aci.c **** tBleStatus aci_gatt_disc_all_charac_of_serv(uint16_t conn_handle, uint16_t start_attr_handle, 
 738:Middlewares/ST/BlueNRG-MS/hci/controller/bluenrg_gatt_aci.c **** 					    uint16_t end_attr_handle)
 739:Middlewares/ST/BlueNRG-MS/hci/controller/bluenrg_gatt_aci.c **** {
 2473              		.loc 1 739 1 is_stmt 1 view -0
 2474              		.cfi_startproc
 2475              		@ args = 0, pretend = 0, frame = 32
 2476              		@ frame_needed = 0, uses_anonymous_args = 0
 2477              		.loc 1 739 1 is_stmt 0 view .LVU827
 2478 0000 00B5     		push	{lr}
 2479              	.LCFI82:
 2480              		.cfi_def_cfa_offset 4
 2481              		.cfi_offset 14, -4
 2482 0002 89B0     		sub	sp, sp, #36
 2483              	.LCFI83:
 2484              		.cfi_def_cfa_offset 40
 740:Middlewares/ST/BlueNRG-MS/hci/controller/bluenrg_gatt_aci.c ****   struct hci_request rq;
 2485              		.loc 1 740 3 is_stmt 1 view .LVU828
 741:Middlewares/ST/BlueNRG-MS/hci/controller/bluenrg_gatt_aci.c ****   uint8_t status;
 2486              		.loc 1 741 3 view .LVU829
 742:Middlewares/ST/BlueNRG-MS/hci/controller/bluenrg_gatt_aci.c ****   gatt_disc_all_charac_of_serv_cp cp;
 2487              		.loc 1 742 3 view .LVU830
 743:Middlewares/ST/BlueNRG-MS/hci/controller/bluenrg_gatt_aci.c **** 
 744:Middlewares/ST/BlueNRG-MS/hci/controller/bluenrg_gatt_aci.c ****   cp.conn_handle = htobs(conn_handle);
 2488              		.loc 1 744 3 view .LVU831
 2489              		.loc 1 744 18 is_stmt 0 view .LVU832
 2490 0004 ADF80000 		strh	r0, [sp]	@ movhi
 745:Middlewares/ST/BlueNRG-MS/hci/controller/bluenrg_gatt_aci.c ****   cp.start_attr_handle = htobs(start_attr_handle);
 2491              		.loc 1 745 3 is_stmt 1 view .LVU833
 2492              		.loc 1 745 24 is_stmt 0 view .LVU834
 2493 0008 ADF80210 		strh	r1, [sp, #2]	@ movhi
 746:Middlewares/ST/BlueNRG-MS/hci/controller/bluenrg_gatt_aci.c ****   cp.end_attr_handle = htobs(end_attr_handle);
 2494              		.loc 1 746 3 is_stmt 1 view .LVU835
 2495              		.loc 1 746 22 is_stmt 0 view .LVU836
 2496 000c ADF80420 		strh	r2, [sp, #4]	@ movhi
 747:Middlewares/ST/BlueNRG-MS/hci/controller/bluenrg_gatt_aci.c **** 
 748:Middlewares/ST/BlueNRG-MS/hci/controller/bluenrg_gatt_aci.c ****   BLUENRG_memset(&rq, 0, sizeof(rq));
 2497              		.loc 1 748 3 is_stmt 1 view .LVU837
 2498 0010 0021     		movs	r1, #0
 2499              	.LVL177:
 2500              		.loc 1 748 3 is_stmt 0 view .LVU838
 2501 0012 0291     		str	r1, [sp, #8]
 2502 0014 0391     		str	r1, [sp, #12]
 2503 0016 0491     		str	r1, [sp, #16]
 2504 0018 0591     		str	r1, [sp, #20]
 2505 001a 0691     		str	r1, [sp, #24]
 2506 001c 0791     		str	r1, [sp, #28]
 749:Middlewares/ST/BlueNRG-MS/hci/controller/bluenrg_gatt_aci.c ****   rq.ogf = OGF_VENDOR_CMD;
 2507              		.loc 1 749 3 is_stmt 1 view .LVU839
ARM GAS  /tmp/cc8W75dr.s 			page 58


 2508              		.loc 1 749 10 is_stmt 0 view .LVU840
 2509 001e 3F23     		movs	r3, #63
 2510 0020 ADF80830 		strh	r3, [sp, #8]	@ movhi
 750:Middlewares/ST/BlueNRG-MS/hci/controller/bluenrg_gatt_aci.c ****   rq.ocf = OCF_GATT_DISC_ALL_CHARAC_OF_SERV;
 2511              		.loc 1 750 3 is_stmt 1 view .LVU841
 2512              		.loc 1 750 10 is_stmt 0 view .LVU842
 2513 0024 40F21513 		movw	r3, #277
 2514 0028 ADF80A30 		strh	r3, [sp, #10]	@ movhi
 751:Middlewares/ST/BlueNRG-MS/hci/controller/bluenrg_gatt_aci.c ****   rq.cparam = &cp;
 2515              		.loc 1 751 3 is_stmt 1 view .LVU843
 2516              		.loc 1 751 13 is_stmt 0 view .LVU844
 2517 002c CDF810D0 		str	sp, [sp, #16]
 752:Middlewares/ST/BlueNRG-MS/hci/controller/bluenrg_gatt_aci.c ****   rq.clen = GATT_DISC_ALL_CHARAC_OF_SERV_CP_SIZE;
 2518              		.loc 1 752 3 is_stmt 1 view .LVU845
 2519              		.loc 1 752 11 is_stmt 0 view .LVU846
 2520 0030 0623     		movs	r3, #6
 2521 0032 0593     		str	r3, [sp, #20]
 753:Middlewares/ST/BlueNRG-MS/hci/controller/bluenrg_gatt_aci.c ****   rq.event = EVT_CMD_STATUS;
 2522              		.loc 1 753 3 is_stmt 1 view .LVU847
 2523              		.loc 1 753 12 is_stmt 0 view .LVU848
 2524 0034 0F23     		movs	r3, #15
 2525 0036 0393     		str	r3, [sp, #12]
 754:Middlewares/ST/BlueNRG-MS/hci/controller/bluenrg_gatt_aci.c ****   rq.rparam = &status;
 2526              		.loc 1 754 3 is_stmt 1 view .LVU849
 2527              		.loc 1 754 13 is_stmt 0 view .LVU850
 2528 0038 0DF10703 		add	r3, sp, #7
 2529 003c 0693     		str	r3, [sp, #24]
 755:Middlewares/ST/BlueNRG-MS/hci/controller/bluenrg_gatt_aci.c ****   rq.rlen = 1;
 2530              		.loc 1 755 3 is_stmt 1 view .LVU851
 2531              		.loc 1 755 11 is_stmt 0 view .LVU852
 2532 003e 0123     		movs	r3, #1
 2533 0040 0793     		str	r3, [sp, #28]
 756:Middlewares/ST/BlueNRG-MS/hci/controller/bluenrg_gatt_aci.c **** 
 757:Middlewares/ST/BlueNRG-MS/hci/controller/bluenrg_gatt_aci.c ****   if (hci_send_req(&rq, FALSE) < 0)
 2534              		.loc 1 757 3 is_stmt 1 view .LVU853
 2535              		.loc 1 757 7 is_stmt 0 view .LVU854
 2536 0042 02A8     		add	r0, sp, #8
 2537              	.LVL178:
 2538              		.loc 1 757 7 view .LVU855
 2539 0044 FFF7FEFF 		bl	hci_send_req
 2540              	.LVL179:
 2541              		.loc 1 757 6 view .LVU856
 2542 0048 0028     		cmp	r0, #0
 2543 004a 04DB     		blt	.L114
 758:Middlewares/ST/BlueNRG-MS/hci/controller/bluenrg_gatt_aci.c ****     return BLE_STATUS_TIMEOUT;
 759:Middlewares/ST/BlueNRG-MS/hci/controller/bluenrg_gatt_aci.c **** 
 760:Middlewares/ST/BlueNRG-MS/hci/controller/bluenrg_gatt_aci.c ****   return status;
 2544              		.loc 1 760 3 is_stmt 1 view .LVU857
 2545              		.loc 1 760 10 is_stmt 0 view .LVU858
 2546 004c 9DF80700 		ldrb	r0, [sp, #7]	@ zero_extendqisi2
 2547              	.L113:
 761:Middlewares/ST/BlueNRG-MS/hci/controller/bluenrg_gatt_aci.c **** }
 2548              		.loc 1 761 1 view .LVU859
 2549 0050 09B0     		add	sp, sp, #36
 2550              	.LCFI84:
 2551              		.cfi_remember_state
 2552              		.cfi_def_cfa_offset 4
ARM GAS  /tmp/cc8W75dr.s 			page 59


 2553              		@ sp needed
 2554 0052 5DF804FB 		ldr	pc, [sp], #4
 2555              	.L114:
 2556              	.LCFI85:
 2557              		.cfi_restore_state
 758:Middlewares/ST/BlueNRG-MS/hci/controller/bluenrg_gatt_aci.c ****     return BLE_STATUS_TIMEOUT;
 2558              		.loc 1 758 12 view .LVU860
 2559 0056 FF20     		movs	r0, #255
 2560 0058 FAE7     		b	.L113
 2561              		.cfi_endproc
 2562              	.LFE312:
 2564              		.section	.text.aci_gatt_disc_charac_by_uuid,"ax",%progbits
 2565              		.align	1
 2566              		.global	aci_gatt_disc_charac_by_uuid
 2567              		.syntax unified
 2568              		.thumb
 2569              		.thumb_func
 2571              	aci_gatt_disc_charac_by_uuid:
 2572              	.LVL180:
 2573              	.LFB313:
 762:Middlewares/ST/BlueNRG-MS/hci/controller/bluenrg_gatt_aci.c **** 
 763:Middlewares/ST/BlueNRG-MS/hci/controller/bluenrg_gatt_aci.c **** tBleStatus aci_gatt_disc_charac_by_uuid(uint16_t conn_handle, uint16_t start_handle,
 764:Middlewares/ST/BlueNRG-MS/hci/controller/bluenrg_gatt_aci.c **** 				                     uint16_t end_handle, uint8_t charUuidType,
 765:Middlewares/ST/BlueNRG-MS/hci/controller/bluenrg_gatt_aci.c ****                                                      const uint8_t* charUuid)
 766:Middlewares/ST/BlueNRG-MS/hci/controller/bluenrg_gatt_aci.c **** {
 2574              		.loc 1 766 1 is_stmt 1 view -0
 2575              		.cfi_startproc
 2576              		@ args = 4, pretend = 0, frame = 48
 2577              		@ frame_needed = 0, uses_anonymous_args = 0
 2578              		.loc 1 766 1 is_stmt 0 view .LVU862
 2579 0000 10B5     		push	{r4, lr}
 2580              	.LCFI86:
 2581              		.cfi_def_cfa_offset 8
 2582              		.cfi_offset 4, -8
 2583              		.cfi_offset 14, -4
 2584 0002 8CB0     		sub	sp, sp, #48
 2585              	.LCFI87:
 2586              		.cfi_def_cfa_offset 56
 767:Middlewares/ST/BlueNRG-MS/hci/controller/bluenrg_gatt_aci.c ****   struct hci_request rq;
 2587              		.loc 1 767 3 is_stmt 1 view .LVU863
 768:Middlewares/ST/BlueNRG-MS/hci/controller/bluenrg_gatt_aci.c ****   uint8_t status;
 2588              		.loc 1 768 3 view .LVU864
 769:Middlewares/ST/BlueNRG-MS/hci/controller/bluenrg_gatt_aci.c ****   
 770:Middlewares/ST/BlueNRG-MS/hci/controller/bluenrg_gatt_aci.c ****   uint8_t buffer[23];
 2589              		.loc 1 770 3 view .LVU865
 771:Middlewares/ST/BlueNRG-MS/hci/controller/bluenrg_gatt_aci.c ****   uint8_t uuid_len;
 2590              		.loc 1 771 3 view .LVU866
 772:Middlewares/ST/BlueNRG-MS/hci/controller/bluenrg_gatt_aci.c ****   uint8_t indx = 0;
 2591              		.loc 1 772 3 view .LVU867
 2592              	.LVL181:
 773:Middlewares/ST/BlueNRG-MS/hci/controller/bluenrg_gatt_aci.c ****     
 774:Middlewares/ST/BlueNRG-MS/hci/controller/bluenrg_gatt_aci.c ****   conn_handle = htobs(conn_handle);
 2593              		.loc 1 774 3 view .LVU868
 775:Middlewares/ST/BlueNRG-MS/hci/controller/bluenrg_gatt_aci.c ****   BLUENRG_memcpy(buffer + indx, &conn_handle, 2);
 2594              		.loc 1 775 3 view .LVU869
 2595 0004 ADF80000 		strh	r0, [sp]	@ movhi
 776:Middlewares/ST/BlueNRG-MS/hci/controller/bluenrg_gatt_aci.c ****   indx += 2;
ARM GAS  /tmp/cc8W75dr.s 			page 60


 2596              		.loc 1 776 3 view .LVU870
 2597              	.LVL182:
 777:Middlewares/ST/BlueNRG-MS/hci/controller/bluenrg_gatt_aci.c ****     
 778:Middlewares/ST/BlueNRG-MS/hci/controller/bluenrg_gatt_aci.c ****   start_handle = htobs(start_handle);
 2598              		.loc 1 778 3 view .LVU871
 779:Middlewares/ST/BlueNRG-MS/hci/controller/bluenrg_gatt_aci.c ****   BLUENRG_memcpy(buffer + indx, &start_handle, 2);
 2599              		.loc 1 779 3 view .LVU872
 2600 0008 ADF80210 		strh	r1, [sp, #2]	@ movhi
 780:Middlewares/ST/BlueNRG-MS/hci/controller/bluenrg_gatt_aci.c ****   indx += 2;
 2601              		.loc 1 780 3 view .LVU873
 2602              	.LVL183:
 781:Middlewares/ST/BlueNRG-MS/hci/controller/bluenrg_gatt_aci.c ****   
 782:Middlewares/ST/BlueNRG-MS/hci/controller/bluenrg_gatt_aci.c ****   end_handle = htobs(end_handle);
 2603              		.loc 1 782 3 view .LVU874
 783:Middlewares/ST/BlueNRG-MS/hci/controller/bluenrg_gatt_aci.c ****   BLUENRG_memcpy(buffer + indx, &end_handle, 2);
 2604              		.loc 1 783 3 view .LVU875
 2605 000c ADF80420 		strh	r2, [sp, #4]	@ movhi
 784:Middlewares/ST/BlueNRG-MS/hci/controller/bluenrg_gatt_aci.c ****   indx += 2;
 2606              		.loc 1 784 3 view .LVU876
 2607              	.LVL184:
 785:Middlewares/ST/BlueNRG-MS/hci/controller/bluenrg_gatt_aci.c ****   
 786:Middlewares/ST/BlueNRG-MS/hci/controller/bluenrg_gatt_aci.c ****   buffer[indx] = charUuidType;
 2608              		.loc 1 786 3 view .LVU877
 2609              		.loc 1 786 16 is_stmt 0 view .LVU878
 2610 0010 8DF80630 		strb	r3, [sp, #6]
 787:Middlewares/ST/BlueNRG-MS/hci/controller/bluenrg_gatt_aci.c ****   indx++;
 2611              		.loc 1 787 3 is_stmt 1 view .LVU879
 2612              	.LVL185:
 788:Middlewares/ST/BlueNRG-MS/hci/controller/bluenrg_gatt_aci.c ****     
 789:Middlewares/ST/BlueNRG-MS/hci/controller/bluenrg_gatt_aci.c ****   if(charUuidType == 0x01){
 2613              		.loc 1 789 3 view .LVU880
 2614              		.loc 1 789 5 is_stmt 0 view .LVU881
 2615 0014 012B     		cmp	r3, #1
 2616 0016 28D0     		beq	.L122
 790:Middlewares/ST/BlueNRG-MS/hci/controller/bluenrg_gatt_aci.c ****     uuid_len = 2;
 791:Middlewares/ST/BlueNRG-MS/hci/controller/bluenrg_gatt_aci.c ****   }
 792:Middlewares/ST/BlueNRG-MS/hci/controller/bluenrg_gatt_aci.c ****   else {
 793:Middlewares/ST/BlueNRG-MS/hci/controller/bluenrg_gatt_aci.c ****     uuid_len = 16;
 2617              		.loc 1 793 14 view .LVU882
 2618 0018 1024     		movs	r4, #16
 2619              	.L117:
 2620              	.LVL186:
 794:Middlewares/ST/BlueNRG-MS/hci/controller/bluenrg_gatt_aci.c ****   }        
 795:Middlewares/ST/BlueNRG-MS/hci/controller/bluenrg_gatt_aci.c ****   BLUENRG_memcpy(buffer + indx, charUuid, uuid_len);
 2621              		.loc 1 795 3 is_stmt 1 view .LVU883
 2622 001a 2246     		mov	r2, r4
 2623              	.LVL187:
 2624              		.loc 1 795 3 is_stmt 0 view .LVU884
 2625 001c 0E99     		ldr	r1, [sp, #56]
 2626              	.LVL188:
 2627              		.loc 1 795 3 view .LVU885
 2628 001e 0DF10700 		add	r0, sp, #7
 2629              	.LVL189:
 2630              		.loc 1 795 3 view .LVU886
 2631 0022 FFF7FEFF 		bl	memcpy
 2632              	.LVL190:
 796:Middlewares/ST/BlueNRG-MS/hci/controller/bluenrg_gatt_aci.c ****   indx +=  uuid_len;
ARM GAS  /tmp/cc8W75dr.s 			page 61


 2633              		.loc 1 796 3 is_stmt 1 view .LVU887
 2634              		.loc 1 796 8 is_stmt 0 view .LVU888
 2635 0026 0734     		adds	r4, r4, #7
 2636              	.LVL191:
 797:Middlewares/ST/BlueNRG-MS/hci/controller/bluenrg_gatt_aci.c **** 
 798:Middlewares/ST/BlueNRG-MS/hci/controller/bluenrg_gatt_aci.c ****   BLUENRG_memset(&rq, 0, sizeof(rq));
 2637              		.loc 1 798 3 is_stmt 1 view .LVU889
 2638 0028 0021     		movs	r1, #0
 2639 002a 0691     		str	r1, [sp, #24]
 2640 002c 0791     		str	r1, [sp, #28]
 2641 002e 0891     		str	r1, [sp, #32]
 2642 0030 0991     		str	r1, [sp, #36]
 2643 0032 0A91     		str	r1, [sp, #40]
 2644 0034 0B91     		str	r1, [sp, #44]
 799:Middlewares/ST/BlueNRG-MS/hci/controller/bluenrg_gatt_aci.c ****   rq.ogf = OGF_VENDOR_CMD;
 2645              		.loc 1 799 3 view .LVU890
 2646              		.loc 1 799 10 is_stmt 0 view .LVU891
 2647 0036 3F23     		movs	r3, #63
 2648 0038 ADF81830 		strh	r3, [sp, #24]	@ movhi
 800:Middlewares/ST/BlueNRG-MS/hci/controller/bluenrg_gatt_aci.c ****   rq.ocf = OCF_GATT_DISC_CHARAC_BY_UUID;
 2649              		.loc 1 800 3 is_stmt 1 view .LVU892
 2650              		.loc 1 800 10 is_stmt 0 view .LVU893
 2651 003c 4FF48B73 		mov	r3, #278
 2652 0040 ADF81A30 		strh	r3, [sp, #26]	@ movhi
 801:Middlewares/ST/BlueNRG-MS/hci/controller/bluenrg_gatt_aci.c ****   rq.cparam = (void *)buffer;
 2653              		.loc 1 801 3 is_stmt 1 view .LVU894
 2654              		.loc 1 801 13 is_stmt 0 view .LVU895
 2655 0044 CDF820D0 		str	sp, [sp, #32]
 802:Middlewares/ST/BlueNRG-MS/hci/controller/bluenrg_gatt_aci.c ****   rq.clen = indx;
 2656              		.loc 1 802 3 is_stmt 1 view .LVU896
 2657              		.loc 1 802 11 is_stmt 0 view .LVU897
 2658 0048 0994     		str	r4, [sp, #36]
 803:Middlewares/ST/BlueNRG-MS/hci/controller/bluenrg_gatt_aci.c ****   rq.event = EVT_CMD_STATUS;
 2659              		.loc 1 803 3 is_stmt 1 view .LVU898
 2660              		.loc 1 803 12 is_stmt 0 view .LVU899
 2661 004a 0F23     		movs	r3, #15
 2662 004c 0793     		str	r3, [sp, #28]
 804:Middlewares/ST/BlueNRG-MS/hci/controller/bluenrg_gatt_aci.c ****   rq.rparam = &status;
 2663              		.loc 1 804 3 is_stmt 1 view .LVU900
 2664              		.loc 1 804 13 is_stmt 0 view .LVU901
 2665 004e 0DF11703 		add	r3, sp, #23
 2666 0052 0A93     		str	r3, [sp, #40]
 805:Middlewares/ST/BlueNRG-MS/hci/controller/bluenrg_gatt_aci.c ****   rq.rlen = 1;
 2667              		.loc 1 805 3 is_stmt 1 view .LVU902
 2668              		.loc 1 805 11 is_stmt 0 view .LVU903
 2669 0054 0123     		movs	r3, #1
 2670 0056 0B93     		str	r3, [sp, #44]
 806:Middlewares/ST/BlueNRG-MS/hci/controller/bluenrg_gatt_aci.c **** 
 807:Middlewares/ST/BlueNRG-MS/hci/controller/bluenrg_gatt_aci.c ****   if (hci_send_req(&rq, FALSE) < 0)
 2671              		.loc 1 807 3 is_stmt 1 view .LVU904
 2672              		.loc 1 807 7 is_stmt 0 view .LVU905
 2673 0058 06A8     		add	r0, sp, #24
 2674 005a FFF7FEFF 		bl	hci_send_req
 2675              	.LVL192:
 2676              		.loc 1 807 6 view .LVU906
 2677 005e 0028     		cmp	r0, #0
 2678 0060 05DB     		blt	.L120
ARM GAS  /tmp/cc8W75dr.s 			page 62


 808:Middlewares/ST/BlueNRG-MS/hci/controller/bluenrg_gatt_aci.c ****     return BLE_STATUS_TIMEOUT;
 809:Middlewares/ST/BlueNRG-MS/hci/controller/bluenrg_gatt_aci.c **** 
 810:Middlewares/ST/BlueNRG-MS/hci/controller/bluenrg_gatt_aci.c ****   return status;
 2679              		.loc 1 810 3 is_stmt 1 view .LVU907
 2680              		.loc 1 810 10 is_stmt 0 view .LVU908
 2681 0062 9DF81700 		ldrb	r0, [sp, #23]	@ zero_extendqisi2
 2682              	.L118:
 811:Middlewares/ST/BlueNRG-MS/hci/controller/bluenrg_gatt_aci.c **** }
 2683              		.loc 1 811 1 view .LVU909
 2684 0066 0CB0     		add	sp, sp, #48
 2685              	.LCFI88:
 2686              		.cfi_remember_state
 2687              		.cfi_def_cfa_offset 8
 2688              		@ sp needed
 2689 0068 10BD     		pop	{r4, pc}
 2690              	.LVL193:
 2691              	.L122:
 2692              	.LCFI89:
 2693              		.cfi_restore_state
 790:Middlewares/ST/BlueNRG-MS/hci/controller/bluenrg_gatt_aci.c ****   }
 2694              		.loc 1 790 14 view .LVU910
 2695 006a 0224     		movs	r4, #2
 2696 006c D5E7     		b	.L117
 2697              	.LVL194:
 2698              	.L120:
 808:Middlewares/ST/BlueNRG-MS/hci/controller/bluenrg_gatt_aci.c ****     return BLE_STATUS_TIMEOUT;
 2699              		.loc 1 808 12 view .LVU911
 2700 006e FF20     		movs	r0, #255
 2701 0070 F9E7     		b	.L118
 2702              		.cfi_endproc
 2703              	.LFE313:
 2705              		.section	.text.aci_gatt_disc_all_charac_descriptors,"ax",%progbits
 2706              		.align	1
 2707              		.global	aci_gatt_disc_all_charac_descriptors
 2708              		.syntax unified
 2709              		.thumb
 2710              		.thumb_func
 2712              	aci_gatt_disc_all_charac_descriptors:
 2713              	.LVL195:
 2714              	.LFB314:
 812:Middlewares/ST/BlueNRG-MS/hci/controller/bluenrg_gatt_aci.c **** 
 813:Middlewares/ST/BlueNRG-MS/hci/controller/bluenrg_gatt_aci.c **** tBleStatus aci_gatt_disc_all_charac_descriptors(uint16_t conn_handle, uint16_t char_val_handle, 
 814:Middlewares/ST/BlueNRG-MS/hci/controller/bluenrg_gatt_aci.c **** 						uint16_t char_end_handle)
 815:Middlewares/ST/BlueNRG-MS/hci/controller/bluenrg_gatt_aci.c **** {
 2715              		.loc 1 815 1 is_stmt 1 view -0
 2716              		.cfi_startproc
 2717              		@ args = 0, pretend = 0, frame = 32
 2718              		@ frame_needed = 0, uses_anonymous_args = 0
 2719              		.loc 1 815 1 is_stmt 0 view .LVU913
 2720 0000 00B5     		push	{lr}
 2721              	.LCFI90:
 2722              		.cfi_def_cfa_offset 4
 2723              		.cfi_offset 14, -4
 2724 0002 89B0     		sub	sp, sp, #36
 2725              	.LCFI91:
 2726              		.cfi_def_cfa_offset 40
 816:Middlewares/ST/BlueNRG-MS/hci/controller/bluenrg_gatt_aci.c ****   struct hci_request rq;
ARM GAS  /tmp/cc8W75dr.s 			page 63


 2727              		.loc 1 816 3 is_stmt 1 view .LVU914
 817:Middlewares/ST/BlueNRG-MS/hci/controller/bluenrg_gatt_aci.c ****   uint8_t status;
 2728              		.loc 1 817 3 view .LVU915
 818:Middlewares/ST/BlueNRG-MS/hci/controller/bluenrg_gatt_aci.c ****   gatt_disc_all_charac_descriptors_cp cp;
 2729              		.loc 1 818 3 view .LVU916
 819:Middlewares/ST/BlueNRG-MS/hci/controller/bluenrg_gatt_aci.c **** 
 820:Middlewares/ST/BlueNRG-MS/hci/controller/bluenrg_gatt_aci.c ****   cp.conn_handle = htobs(conn_handle);
 2730              		.loc 1 820 3 view .LVU917
 2731              		.loc 1 820 18 is_stmt 0 view .LVU918
 2732 0004 ADF80000 		strh	r0, [sp]	@ movhi
 821:Middlewares/ST/BlueNRG-MS/hci/controller/bluenrg_gatt_aci.c ****   cp.char_val_handle = htobs(char_val_handle);
 2733              		.loc 1 821 3 is_stmt 1 view .LVU919
 2734              		.loc 1 821 22 is_stmt 0 view .LVU920
 2735 0008 ADF80210 		strh	r1, [sp, #2]	@ movhi
 822:Middlewares/ST/BlueNRG-MS/hci/controller/bluenrg_gatt_aci.c ****   cp.char_end_handle = htobs(char_end_handle);
 2736              		.loc 1 822 3 is_stmt 1 view .LVU921
 2737              		.loc 1 822 22 is_stmt 0 view .LVU922
 2738 000c ADF80420 		strh	r2, [sp, #4]	@ movhi
 823:Middlewares/ST/BlueNRG-MS/hci/controller/bluenrg_gatt_aci.c **** 
 824:Middlewares/ST/BlueNRG-MS/hci/controller/bluenrg_gatt_aci.c ****   BLUENRG_memset(&rq, 0, sizeof(rq));
 2739              		.loc 1 824 3 is_stmt 1 view .LVU923
 2740 0010 0021     		movs	r1, #0
 2741              	.LVL196:
 2742              		.loc 1 824 3 is_stmt 0 view .LVU924
 2743 0012 0291     		str	r1, [sp, #8]
 2744 0014 0391     		str	r1, [sp, #12]
 2745 0016 0491     		str	r1, [sp, #16]
 2746 0018 0591     		str	r1, [sp, #20]
 2747 001a 0691     		str	r1, [sp, #24]
 2748 001c 0791     		str	r1, [sp, #28]
 825:Middlewares/ST/BlueNRG-MS/hci/controller/bluenrg_gatt_aci.c ****   rq.ogf = OGF_VENDOR_CMD;
 2749              		.loc 1 825 3 is_stmt 1 view .LVU925
 2750              		.loc 1 825 10 is_stmt 0 view .LVU926
 2751 001e 3F23     		movs	r3, #63
 2752 0020 ADF80830 		strh	r3, [sp, #8]	@ movhi
 826:Middlewares/ST/BlueNRG-MS/hci/controller/bluenrg_gatt_aci.c ****   rq.ocf = OCF_GATT_DISC_ALL_CHARAC_DESCRIPTORS;
 2753              		.loc 1 826 3 is_stmt 1 view .LVU927
 2754              		.loc 1 826 10 is_stmt 0 view .LVU928
 2755 0024 40F21713 		movw	r3, #279
 2756 0028 ADF80A30 		strh	r3, [sp, #10]	@ movhi
 827:Middlewares/ST/BlueNRG-MS/hci/controller/bluenrg_gatt_aci.c ****   rq.cparam = &cp;
 2757              		.loc 1 827 3 is_stmt 1 view .LVU929
 2758              		.loc 1 827 13 is_stmt 0 view .LVU930
 2759 002c CDF810D0 		str	sp, [sp, #16]
 828:Middlewares/ST/BlueNRG-MS/hci/controller/bluenrg_gatt_aci.c ****   rq.clen = GATT_DISC_ALL_CHARAC_DESCRIPTORS_CP_SIZE;
 2760              		.loc 1 828 3 is_stmt 1 view .LVU931
 2761              		.loc 1 828 11 is_stmt 0 view .LVU932
 2762 0030 0623     		movs	r3, #6
 2763 0032 0593     		str	r3, [sp, #20]
 829:Middlewares/ST/BlueNRG-MS/hci/controller/bluenrg_gatt_aci.c ****   rq.event = EVT_CMD_STATUS;
 2764              		.loc 1 829 3 is_stmt 1 view .LVU933
 2765              		.loc 1 829 12 is_stmt 0 view .LVU934
 2766 0034 0F23     		movs	r3, #15
 2767 0036 0393     		str	r3, [sp, #12]
 830:Middlewares/ST/BlueNRG-MS/hci/controller/bluenrg_gatt_aci.c ****   rq.rparam = &status;
 2768              		.loc 1 830 3 is_stmt 1 view .LVU935
 2769              		.loc 1 830 13 is_stmt 0 view .LVU936
ARM GAS  /tmp/cc8W75dr.s 			page 64


 2770 0038 0DF10703 		add	r3, sp, #7
 2771 003c 0693     		str	r3, [sp, #24]
 831:Middlewares/ST/BlueNRG-MS/hci/controller/bluenrg_gatt_aci.c ****   rq.rlen = 1;
 2772              		.loc 1 831 3 is_stmt 1 view .LVU937
 2773              		.loc 1 831 11 is_stmt 0 view .LVU938
 2774 003e 0123     		movs	r3, #1
 2775 0040 0793     		str	r3, [sp, #28]
 832:Middlewares/ST/BlueNRG-MS/hci/controller/bluenrg_gatt_aci.c **** 
 833:Middlewares/ST/BlueNRG-MS/hci/controller/bluenrg_gatt_aci.c ****   if (hci_send_req(&rq, FALSE) < 0)
 2776              		.loc 1 833 3 is_stmt 1 view .LVU939
 2777              		.loc 1 833 7 is_stmt 0 view .LVU940
 2778 0042 02A8     		add	r0, sp, #8
 2779              	.LVL197:
 2780              		.loc 1 833 7 view .LVU941
 2781 0044 FFF7FEFF 		bl	hci_send_req
 2782              	.LVL198:
 2783              		.loc 1 833 6 view .LVU942
 2784 0048 0028     		cmp	r0, #0
 2785 004a 04DB     		blt	.L125
 834:Middlewares/ST/BlueNRG-MS/hci/controller/bluenrg_gatt_aci.c ****     return BLE_STATUS_TIMEOUT;
 835:Middlewares/ST/BlueNRG-MS/hci/controller/bluenrg_gatt_aci.c **** 
 836:Middlewares/ST/BlueNRG-MS/hci/controller/bluenrg_gatt_aci.c ****   return status;
 2786              		.loc 1 836 3 is_stmt 1 view .LVU943
 2787              		.loc 1 836 10 is_stmt 0 view .LVU944
 2788 004c 9DF80700 		ldrb	r0, [sp, #7]	@ zero_extendqisi2
 2789              	.L124:
 837:Middlewares/ST/BlueNRG-MS/hci/controller/bluenrg_gatt_aci.c **** }
 2790              		.loc 1 837 1 view .LVU945
 2791 0050 09B0     		add	sp, sp, #36
 2792              	.LCFI92:
 2793              		.cfi_remember_state
 2794              		.cfi_def_cfa_offset 4
 2795              		@ sp needed
 2796 0052 5DF804FB 		ldr	pc, [sp], #4
 2797              	.L125:
 2798              	.LCFI93:
 2799              		.cfi_restore_state
 834:Middlewares/ST/BlueNRG-MS/hci/controller/bluenrg_gatt_aci.c ****     return BLE_STATUS_TIMEOUT;
 2800              		.loc 1 834 12 view .LVU946
 2801 0056 FF20     		movs	r0, #255
 2802 0058 FAE7     		b	.L124
 2803              		.cfi_endproc
 2804              	.LFE314:
 2806              		.section	.text.aci_gatt_read_charac_val,"ax",%progbits
 2807              		.align	1
 2808              		.global	aci_gatt_read_charac_val
 2809              		.syntax unified
 2810              		.thumb
 2811              		.thumb_func
 2813              	aci_gatt_read_charac_val:
 2814              	.LVL199:
 2815              	.LFB315:
 838:Middlewares/ST/BlueNRG-MS/hci/controller/bluenrg_gatt_aci.c **** 
 839:Middlewares/ST/BlueNRG-MS/hci/controller/bluenrg_gatt_aci.c **** tBleStatus aci_gatt_read_charac_val(uint16_t conn_handle, uint16_t attr_handle)
 840:Middlewares/ST/BlueNRG-MS/hci/controller/bluenrg_gatt_aci.c **** {
 2816              		.loc 1 840 1 is_stmt 1 view -0
 2817              		.cfi_startproc
ARM GAS  /tmp/cc8W75dr.s 			page 65


 2818              		@ args = 0, pretend = 0, frame = 32
 2819              		@ frame_needed = 0, uses_anonymous_args = 0
 2820              		.loc 1 840 1 is_stmt 0 view .LVU948
 2821 0000 00B5     		push	{lr}
 2822              	.LCFI94:
 2823              		.cfi_def_cfa_offset 4
 2824              		.cfi_offset 14, -4
 2825 0002 89B0     		sub	sp, sp, #36
 2826              	.LCFI95:
 2827              		.cfi_def_cfa_offset 40
 841:Middlewares/ST/BlueNRG-MS/hci/controller/bluenrg_gatt_aci.c ****   struct hci_request rq;
 2828              		.loc 1 841 3 is_stmt 1 view .LVU949
 842:Middlewares/ST/BlueNRG-MS/hci/controller/bluenrg_gatt_aci.c ****   uint8_t status;
 2829              		.loc 1 842 3 view .LVU950
 843:Middlewares/ST/BlueNRG-MS/hci/controller/bluenrg_gatt_aci.c ****   gatt_read_charac_val_cp cp;
 2830              		.loc 1 843 3 view .LVU951
 844:Middlewares/ST/BlueNRG-MS/hci/controller/bluenrg_gatt_aci.c **** 
 845:Middlewares/ST/BlueNRG-MS/hci/controller/bluenrg_gatt_aci.c ****   cp.conn_handle = htobs(conn_handle);
 2831              		.loc 1 845 3 view .LVU952
 2832              		.loc 1 845 18 is_stmt 0 view .LVU953
 2833 0004 ADF80000 		strh	r0, [sp]	@ movhi
 846:Middlewares/ST/BlueNRG-MS/hci/controller/bluenrg_gatt_aci.c ****   cp.attr_handle = htobs(attr_handle);
 2834              		.loc 1 846 3 is_stmt 1 view .LVU954
 2835              		.loc 1 846 18 is_stmt 0 view .LVU955
 2836 0008 ADF80210 		strh	r1, [sp, #2]	@ movhi
 847:Middlewares/ST/BlueNRG-MS/hci/controller/bluenrg_gatt_aci.c **** 
 848:Middlewares/ST/BlueNRG-MS/hci/controller/bluenrg_gatt_aci.c ****   BLUENRG_memset(&rq, 0, sizeof(rq));
 2837              		.loc 1 848 3 is_stmt 1 view .LVU956
 2838 000c 0021     		movs	r1, #0
 2839              	.LVL200:
 2840              		.loc 1 848 3 is_stmt 0 view .LVU957
 2841 000e 0291     		str	r1, [sp, #8]
 2842 0010 0391     		str	r1, [sp, #12]
 2843 0012 0491     		str	r1, [sp, #16]
 2844 0014 0591     		str	r1, [sp, #20]
 2845 0016 0691     		str	r1, [sp, #24]
 2846 0018 0791     		str	r1, [sp, #28]
 849:Middlewares/ST/BlueNRG-MS/hci/controller/bluenrg_gatt_aci.c ****   rq.ogf = OGF_VENDOR_CMD;
 2847              		.loc 1 849 3 is_stmt 1 view .LVU958
 2848              		.loc 1 849 10 is_stmt 0 view .LVU959
 2849 001a 3F23     		movs	r3, #63
 2850 001c ADF80830 		strh	r3, [sp, #8]	@ movhi
 850:Middlewares/ST/BlueNRG-MS/hci/controller/bluenrg_gatt_aci.c ****   rq.ocf = OCF_GATT_READ_CHARAC_VAL;
 2851              		.loc 1 850 3 is_stmt 1 view .LVU960
 2852              		.loc 1 850 10 is_stmt 0 view .LVU961
 2853 0020 4FF48C73 		mov	r3, #280
 2854 0024 ADF80A30 		strh	r3, [sp, #10]	@ movhi
 851:Middlewares/ST/BlueNRG-MS/hci/controller/bluenrg_gatt_aci.c ****   rq.cparam = &cp;
 2855              		.loc 1 851 3 is_stmt 1 view .LVU962
 2856              		.loc 1 851 13 is_stmt 0 view .LVU963
 2857 0028 CDF810D0 		str	sp, [sp, #16]
 852:Middlewares/ST/BlueNRG-MS/hci/controller/bluenrg_gatt_aci.c ****   rq.clen = GATT_READ_CHARAC_VAL_CP_SIZE;
 2858              		.loc 1 852 3 is_stmt 1 view .LVU964
 2859              		.loc 1 852 11 is_stmt 0 view .LVU965
 2860 002c 0423     		movs	r3, #4
 2861 002e 0593     		str	r3, [sp, #20]
 853:Middlewares/ST/BlueNRG-MS/hci/controller/bluenrg_gatt_aci.c ****   rq.event = EVT_CMD_STATUS;
ARM GAS  /tmp/cc8W75dr.s 			page 66


 2862              		.loc 1 853 3 is_stmt 1 view .LVU966
 2863              		.loc 1 853 12 is_stmt 0 view .LVU967
 2864 0030 0F23     		movs	r3, #15
 2865 0032 0393     		str	r3, [sp, #12]
 854:Middlewares/ST/BlueNRG-MS/hci/controller/bluenrg_gatt_aci.c ****   rq.rparam = &status;
 2866              		.loc 1 854 3 is_stmt 1 view .LVU968
 2867              		.loc 1 854 13 is_stmt 0 view .LVU969
 2868 0034 0DF10703 		add	r3, sp, #7
 2869 0038 0693     		str	r3, [sp, #24]
 855:Middlewares/ST/BlueNRG-MS/hci/controller/bluenrg_gatt_aci.c ****   rq.rlen = 1;
 2870              		.loc 1 855 3 is_stmt 1 view .LVU970
 2871              		.loc 1 855 11 is_stmt 0 view .LVU971
 2872 003a 0123     		movs	r3, #1
 2873 003c 0793     		str	r3, [sp, #28]
 856:Middlewares/ST/BlueNRG-MS/hci/controller/bluenrg_gatt_aci.c **** 
 857:Middlewares/ST/BlueNRG-MS/hci/controller/bluenrg_gatt_aci.c ****   if (hci_send_req(&rq, FALSE) < 0)
 2874              		.loc 1 857 3 is_stmt 1 view .LVU972
 2875              		.loc 1 857 7 is_stmt 0 view .LVU973
 2876 003e 02A8     		add	r0, sp, #8
 2877              	.LVL201:
 2878              		.loc 1 857 7 view .LVU974
 2879 0040 FFF7FEFF 		bl	hci_send_req
 2880              	.LVL202:
 2881              		.loc 1 857 6 view .LVU975
 2882 0044 0028     		cmp	r0, #0
 2883 0046 04DB     		blt	.L129
 858:Middlewares/ST/BlueNRG-MS/hci/controller/bluenrg_gatt_aci.c ****     return BLE_STATUS_TIMEOUT;
 859:Middlewares/ST/BlueNRG-MS/hci/controller/bluenrg_gatt_aci.c ****   
 860:Middlewares/ST/BlueNRG-MS/hci/controller/bluenrg_gatt_aci.c ****   return status;
 2884              		.loc 1 860 3 is_stmt 1 view .LVU976
 2885              		.loc 1 860 10 is_stmt 0 view .LVU977
 2886 0048 9DF80700 		ldrb	r0, [sp, #7]	@ zero_extendqisi2
 2887              	.L128:
 861:Middlewares/ST/BlueNRG-MS/hci/controller/bluenrg_gatt_aci.c **** }
 2888              		.loc 1 861 1 view .LVU978
 2889 004c 09B0     		add	sp, sp, #36
 2890              	.LCFI96:
 2891              		.cfi_remember_state
 2892              		.cfi_def_cfa_offset 4
 2893              		@ sp needed
 2894 004e 5DF804FB 		ldr	pc, [sp], #4
 2895              	.L129:
 2896              	.LCFI97:
 2897              		.cfi_restore_state
 858:Middlewares/ST/BlueNRG-MS/hci/controller/bluenrg_gatt_aci.c ****     return BLE_STATUS_TIMEOUT;
 2898              		.loc 1 858 12 view .LVU979
 2899 0052 FF20     		movs	r0, #255
 2900 0054 FAE7     		b	.L128
 2901              		.cfi_endproc
 2902              	.LFE315:
 2904              		.section	.text.aci_gatt_read_using_charac_uuid,"ax",%progbits
 2905              		.align	1
 2906              		.global	aci_gatt_read_using_charac_uuid
 2907              		.syntax unified
 2908              		.thumb
 2909              		.thumb_func
 2911              	aci_gatt_read_using_charac_uuid:
ARM GAS  /tmp/cc8W75dr.s 			page 67


 2912              	.LVL203:
 2913              	.LFB316:
 862:Middlewares/ST/BlueNRG-MS/hci/controller/bluenrg_gatt_aci.c **** 
 863:Middlewares/ST/BlueNRG-MS/hci/controller/bluenrg_gatt_aci.c **** tBleStatus aci_gatt_read_using_charac_uuid(uint16_t conn_handle, uint16_t start_handle, uint16_t en
 864:Middlewares/ST/BlueNRG-MS/hci/controller/bluenrg_gatt_aci.c ****                                     uint8_t  uuid_type, uint8_t* uuid)
 865:Middlewares/ST/BlueNRG-MS/hci/controller/bluenrg_gatt_aci.c **** {
 2914              		.loc 1 865 1 is_stmt 1 view -0
 2915              		.cfi_startproc
 2916              		@ args = 4, pretend = 0, frame = 48
 2917              		@ frame_needed = 0, uses_anonymous_args = 0
 2918              		.loc 1 865 1 is_stmt 0 view .LVU981
 2919 0000 10B5     		push	{r4, lr}
 2920              	.LCFI98:
 2921              		.cfi_def_cfa_offset 8
 2922              		.cfi_offset 4, -8
 2923              		.cfi_offset 14, -4
 2924 0002 8CB0     		sub	sp, sp, #48
 2925              	.LCFI99:
 2926              		.cfi_def_cfa_offset 56
 866:Middlewares/ST/BlueNRG-MS/hci/controller/bluenrg_gatt_aci.c ****   struct hci_request rq;
 2927              		.loc 1 866 3 is_stmt 1 view .LVU982
 867:Middlewares/ST/BlueNRG-MS/hci/controller/bluenrg_gatt_aci.c ****   uint8_t status;
 2928              		.loc 1 867 3 view .LVU983
 868:Middlewares/ST/BlueNRG-MS/hci/controller/bluenrg_gatt_aci.c ****   gatt_read_using_charac_uuid_cp cp;
 2929              		.loc 1 868 3 view .LVU984
 869:Middlewares/ST/BlueNRG-MS/hci/controller/bluenrg_gatt_aci.c ****   uint8_t uuid_len;
 2930              		.loc 1 869 3 view .LVU985
 870:Middlewares/ST/BlueNRG-MS/hci/controller/bluenrg_gatt_aci.c ****   
 871:Middlewares/ST/BlueNRG-MS/hci/controller/bluenrg_gatt_aci.c ****   if(uuid_type == UUID_TYPE_16){
 2931              		.loc 1 871 3 view .LVU986
 2932              		.loc 1 871 5 is_stmt 0 view .LVU987
 2933 0004 012B     		cmp	r3, #1
 2934 0006 2ED0     		beq	.L137
 872:Middlewares/ST/BlueNRG-MS/hci/controller/bluenrg_gatt_aci.c ****     uuid_len = 2;
 873:Middlewares/ST/BlueNRG-MS/hci/controller/bluenrg_gatt_aci.c ****   }
 874:Middlewares/ST/BlueNRG-MS/hci/controller/bluenrg_gatt_aci.c ****   else{
 875:Middlewares/ST/BlueNRG-MS/hci/controller/bluenrg_gatt_aci.c ****     uuid_len = 16;
 2935              		.loc 1 875 14 view .LVU988
 2936 0008 1024     		movs	r4, #16
 2937              	.L132:
 2938              	.LVL204:
 876:Middlewares/ST/BlueNRG-MS/hci/controller/bluenrg_gatt_aci.c ****   }
 877:Middlewares/ST/BlueNRG-MS/hci/controller/bluenrg_gatt_aci.c **** 
 878:Middlewares/ST/BlueNRG-MS/hci/controller/bluenrg_gatt_aci.c ****   cp.conn_handle = htobs(conn_handle);
 2939              		.loc 1 878 3 is_stmt 1 view .LVU989
 2940              		.loc 1 878 18 is_stmt 0 view .LVU990
 2941 000a ADF80000 		strh	r0, [sp]	@ movhi
 879:Middlewares/ST/BlueNRG-MS/hci/controller/bluenrg_gatt_aci.c ****   cp.start_handle = htobs(start_handle);
 2942              		.loc 1 879 3 is_stmt 1 view .LVU991
 2943              		.loc 1 879 19 is_stmt 0 view .LVU992
 2944 000e ADF80210 		strh	r1, [sp, #2]	@ movhi
 880:Middlewares/ST/BlueNRG-MS/hci/controller/bluenrg_gatt_aci.c ****   cp.end_handle = htobs(end_handle);
 2945              		.loc 1 880 3 is_stmt 1 view .LVU993
 2946              		.loc 1 880 17 is_stmt 0 view .LVU994
 2947 0012 ADF80420 		strh	r2, [sp, #4]	@ movhi
 881:Middlewares/ST/BlueNRG-MS/hci/controller/bluenrg_gatt_aci.c ****   cp.uuid_type = uuid_type;
 2948              		.loc 1 881 3 is_stmt 1 view .LVU995
ARM GAS  /tmp/cc8W75dr.s 			page 68


 2949              		.loc 1 881 16 is_stmt 0 view .LVU996
 2950 0016 8DF80630 		strb	r3, [sp, #6]
 882:Middlewares/ST/BlueNRG-MS/hci/controller/bluenrg_gatt_aci.c ****   BLUENRG_memcpy(cp.uuid, uuid, uuid_len);
 2951              		.loc 1 882 3 is_stmt 1 view .LVU997
 2952 001a 2246     		mov	r2, r4
 2953              	.LVL205:
 2954              		.loc 1 882 3 is_stmt 0 view .LVU998
 2955 001c 0E99     		ldr	r1, [sp, #56]
 2956              	.LVL206:
 2957              		.loc 1 882 3 view .LVU999
 2958 001e 0DF10700 		add	r0, sp, #7
 2959              	.LVL207:
 2960              		.loc 1 882 3 view .LVU1000
 2961 0022 FFF7FEFF 		bl	memcpy
 2962              	.LVL208:
 883:Middlewares/ST/BlueNRG-MS/hci/controller/bluenrg_gatt_aci.c **** 
 884:Middlewares/ST/BlueNRG-MS/hci/controller/bluenrg_gatt_aci.c ****   BLUENRG_memset(&rq, 0, sizeof(rq));
 2963              		.loc 1 884 3 is_stmt 1 view .LVU1001
 2964 0026 0021     		movs	r1, #0
 2965 0028 0691     		str	r1, [sp, #24]
 2966 002a 0791     		str	r1, [sp, #28]
 2967 002c 0891     		str	r1, [sp, #32]
 2968 002e 0991     		str	r1, [sp, #36]
 2969 0030 0A91     		str	r1, [sp, #40]
 2970 0032 0B91     		str	r1, [sp, #44]
 885:Middlewares/ST/BlueNRG-MS/hci/controller/bluenrg_gatt_aci.c ****   rq.ogf = OGF_VENDOR_CMD;
 2971              		.loc 1 885 3 view .LVU1002
 2972              		.loc 1 885 10 is_stmt 0 view .LVU1003
 2973 0034 3F23     		movs	r3, #63
 2974 0036 ADF81830 		strh	r3, [sp, #24]	@ movhi
 886:Middlewares/ST/BlueNRG-MS/hci/controller/bluenrg_gatt_aci.c ****   rq.ocf = OCF_GATT_READ_USING_CHARAC_UUID;
 2975              		.loc 1 886 3 is_stmt 1 view .LVU1004
 2976              		.loc 1 886 10 is_stmt 0 view .LVU1005
 2977 003a 40F20913 		movw	r3, #265
 2978 003e ADF81A30 		strh	r3, [sp, #26]	@ movhi
 887:Middlewares/ST/BlueNRG-MS/hci/controller/bluenrg_gatt_aci.c ****   rq.cparam = &cp;
 2979              		.loc 1 887 3 is_stmt 1 view .LVU1006
 2980              		.loc 1 887 13 is_stmt 0 view .LVU1007
 2981 0042 CDF820D0 		str	sp, [sp, #32]
 888:Middlewares/ST/BlueNRG-MS/hci/controller/bluenrg_gatt_aci.c ****   rq.clen = GATT_READ_USING_CHARAC_UUID_CP_SIZE + uuid_len;
 2982              		.loc 1 888 3 is_stmt 1 view .LVU1008
 2983              		.loc 1 888 49 is_stmt 0 view .LVU1009
 2984 0046 0734     		adds	r4, r4, #7
 2985              	.LVL209:
 2986              		.loc 1 888 11 view .LVU1010
 2987 0048 0994     		str	r4, [sp, #36]
 889:Middlewares/ST/BlueNRG-MS/hci/controller/bluenrg_gatt_aci.c ****   rq.rparam = &status;
 2988              		.loc 1 889 3 is_stmt 1 view .LVU1011
 2989              		.loc 1 889 13 is_stmt 0 view .LVU1012
 2990 004a 0DF11703 		add	r3, sp, #23
 2991 004e 0A93     		str	r3, [sp, #40]
 890:Middlewares/ST/BlueNRG-MS/hci/controller/bluenrg_gatt_aci.c ****   rq.rlen = 1;
 2992              		.loc 1 890 3 is_stmt 1 view .LVU1013
 2993              		.loc 1 890 11 is_stmt 0 view .LVU1014
 2994 0050 0123     		movs	r3, #1
 2995 0052 0B93     		str	r3, [sp, #44]
 891:Middlewares/ST/BlueNRG-MS/hci/controller/bluenrg_gatt_aci.c **** 
ARM GAS  /tmp/cc8W75dr.s 			page 69


 892:Middlewares/ST/BlueNRG-MS/hci/controller/bluenrg_gatt_aci.c ****   if (hci_send_req(&rq, FALSE) < 0)
 2996              		.loc 1 892 3 is_stmt 1 view .LVU1015
 2997              		.loc 1 892 7 is_stmt 0 view .LVU1016
 2998 0054 06A8     		add	r0, sp, #24
 2999 0056 FFF7FEFF 		bl	hci_send_req
 3000              	.LVL210:
 3001              		.loc 1 892 6 view .LVU1017
 3002 005a 0028     		cmp	r0, #0
 3003 005c 05DB     		blt	.L135
 893:Middlewares/ST/BlueNRG-MS/hci/controller/bluenrg_gatt_aci.c ****     return BLE_STATUS_TIMEOUT;
 894:Middlewares/ST/BlueNRG-MS/hci/controller/bluenrg_gatt_aci.c **** 
 895:Middlewares/ST/BlueNRG-MS/hci/controller/bluenrg_gatt_aci.c ****   return status;
 3004              		.loc 1 895 3 is_stmt 1 view .LVU1018
 3005              		.loc 1 895 10 is_stmt 0 view .LVU1019
 3006 005e 9DF81700 		ldrb	r0, [sp, #23]	@ zero_extendqisi2
 3007              	.L133:
 896:Middlewares/ST/BlueNRG-MS/hci/controller/bluenrg_gatt_aci.c **** }
 3008              		.loc 1 896 1 view .LVU1020
 3009 0062 0CB0     		add	sp, sp, #48
 3010              	.LCFI100:
 3011              		.cfi_remember_state
 3012              		.cfi_def_cfa_offset 8
 3013              		@ sp needed
 3014 0064 10BD     		pop	{r4, pc}
 3015              	.LVL211:
 3016              	.L137:
 3017              	.LCFI101:
 3018              		.cfi_restore_state
 872:Middlewares/ST/BlueNRG-MS/hci/controller/bluenrg_gatt_aci.c ****   }
 3019              		.loc 1 872 14 view .LVU1021
 3020 0066 0224     		movs	r4, #2
 3021 0068 CFE7     		b	.L132
 3022              	.LVL212:
 3023              	.L135:
 893:Middlewares/ST/BlueNRG-MS/hci/controller/bluenrg_gatt_aci.c ****     return BLE_STATUS_TIMEOUT;
 3024              		.loc 1 893 12 view .LVU1022
 3025 006a FF20     		movs	r0, #255
 3026 006c F9E7     		b	.L133
 3027              		.cfi_endproc
 3028              	.LFE316:
 3030              		.section	.text.aci_gatt_read_long_charac_val,"ax",%progbits
 3031              		.align	1
 3032              		.global	aci_gatt_read_long_charac_val
 3033              		.syntax unified
 3034              		.thumb
 3035              		.thumb_func
 3037              	aci_gatt_read_long_charac_val:
 3038              	.LVL213:
 3039              	.LFB317:
 897:Middlewares/ST/BlueNRG-MS/hci/controller/bluenrg_gatt_aci.c **** 
 898:Middlewares/ST/BlueNRG-MS/hci/controller/bluenrg_gatt_aci.c **** tBleStatus aci_gatt_read_long_charac_val(uint16_t conn_handle, uint16_t attr_handle, 
 899:Middlewares/ST/BlueNRG-MS/hci/controller/bluenrg_gatt_aci.c **** 					 uint16_t val_offset)
 900:Middlewares/ST/BlueNRG-MS/hci/controller/bluenrg_gatt_aci.c **** {
 3040              		.loc 1 900 1 is_stmt 1 view -0
 3041              		.cfi_startproc
 3042              		@ args = 0, pretend = 0, frame = 32
 3043              		@ frame_needed = 0, uses_anonymous_args = 0
ARM GAS  /tmp/cc8W75dr.s 			page 70


 3044              		.loc 1 900 1 is_stmt 0 view .LVU1024
 3045 0000 00B5     		push	{lr}
 3046              	.LCFI102:
 3047              		.cfi_def_cfa_offset 4
 3048              		.cfi_offset 14, -4
 3049 0002 89B0     		sub	sp, sp, #36
 3050              	.LCFI103:
 3051              		.cfi_def_cfa_offset 40
 901:Middlewares/ST/BlueNRG-MS/hci/controller/bluenrg_gatt_aci.c ****   struct hci_request rq;
 3052              		.loc 1 901 3 is_stmt 1 view .LVU1025
 902:Middlewares/ST/BlueNRG-MS/hci/controller/bluenrg_gatt_aci.c ****   uint8_t status;
 3053              		.loc 1 902 3 view .LVU1026
 903:Middlewares/ST/BlueNRG-MS/hci/controller/bluenrg_gatt_aci.c ****   gatt_read_long_charac_val_cp cp;
 3054              		.loc 1 903 3 view .LVU1027
 904:Middlewares/ST/BlueNRG-MS/hci/controller/bluenrg_gatt_aci.c **** 
 905:Middlewares/ST/BlueNRG-MS/hci/controller/bluenrg_gatt_aci.c ****   cp.conn_handle = htobs(conn_handle);
 3055              		.loc 1 905 3 view .LVU1028
 3056              		.loc 1 905 18 is_stmt 0 view .LVU1029
 3057 0004 ADF80000 		strh	r0, [sp]	@ movhi
 906:Middlewares/ST/BlueNRG-MS/hci/controller/bluenrg_gatt_aci.c ****   cp.attr_handle = htobs(attr_handle);
 3058              		.loc 1 906 3 is_stmt 1 view .LVU1030
 3059              		.loc 1 906 18 is_stmt 0 view .LVU1031
 3060 0008 ADF80210 		strh	r1, [sp, #2]	@ movhi
 907:Middlewares/ST/BlueNRG-MS/hci/controller/bluenrg_gatt_aci.c ****   cp.val_offset = htobs(val_offset);
 3061              		.loc 1 907 3 is_stmt 1 view .LVU1032
 3062              		.loc 1 907 17 is_stmt 0 view .LVU1033
 3063 000c ADF80420 		strh	r2, [sp, #4]	@ movhi
 908:Middlewares/ST/BlueNRG-MS/hci/controller/bluenrg_gatt_aci.c **** 
 909:Middlewares/ST/BlueNRG-MS/hci/controller/bluenrg_gatt_aci.c ****   BLUENRG_memset(&rq, 0, sizeof(rq));
 3064              		.loc 1 909 3 is_stmt 1 view .LVU1034
 3065 0010 0021     		movs	r1, #0
 3066              	.LVL214:
 3067              		.loc 1 909 3 is_stmt 0 view .LVU1035
 3068 0012 0291     		str	r1, [sp, #8]
 3069 0014 0391     		str	r1, [sp, #12]
 3070 0016 0491     		str	r1, [sp, #16]
 3071 0018 0591     		str	r1, [sp, #20]
 3072 001a 0691     		str	r1, [sp, #24]
 3073 001c 0791     		str	r1, [sp, #28]
 910:Middlewares/ST/BlueNRG-MS/hci/controller/bluenrg_gatt_aci.c ****   rq.ogf = OGF_VENDOR_CMD;
 3074              		.loc 1 910 3 is_stmt 1 view .LVU1036
 3075              		.loc 1 910 10 is_stmt 0 view .LVU1037
 3076 001e 3F23     		movs	r3, #63
 3077 0020 ADF80830 		strh	r3, [sp, #8]	@ movhi
 911:Middlewares/ST/BlueNRG-MS/hci/controller/bluenrg_gatt_aci.c ****   rq.ocf = OCF_GATT_READ_LONG_CHARAC_VAL;
 3078              		.loc 1 911 3 is_stmt 1 view .LVU1038
 3079              		.loc 1 911 10 is_stmt 0 view .LVU1039
 3080 0024 4FF48D73 		mov	r3, #282
 3081 0028 ADF80A30 		strh	r3, [sp, #10]	@ movhi
 912:Middlewares/ST/BlueNRG-MS/hci/controller/bluenrg_gatt_aci.c ****   rq.cparam = &cp;
 3082              		.loc 1 912 3 is_stmt 1 view .LVU1040
 3083              		.loc 1 912 13 is_stmt 0 view .LVU1041
 3084 002c CDF810D0 		str	sp, [sp, #16]
 913:Middlewares/ST/BlueNRG-MS/hci/controller/bluenrg_gatt_aci.c ****   rq.clen = GATT_READ_LONG_CHARAC_VAL_CP_SIZE;
 3085              		.loc 1 913 3 is_stmt 1 view .LVU1042
 3086              		.loc 1 913 11 is_stmt 0 view .LVU1043
 3087 0030 0623     		movs	r3, #6
ARM GAS  /tmp/cc8W75dr.s 			page 71


 3088 0032 0593     		str	r3, [sp, #20]
 914:Middlewares/ST/BlueNRG-MS/hci/controller/bluenrg_gatt_aci.c ****   rq.event = EVT_CMD_STATUS;
 3089              		.loc 1 914 3 is_stmt 1 view .LVU1044
 3090              		.loc 1 914 12 is_stmt 0 view .LVU1045
 3091 0034 0F23     		movs	r3, #15
 3092 0036 0393     		str	r3, [sp, #12]
 915:Middlewares/ST/BlueNRG-MS/hci/controller/bluenrg_gatt_aci.c ****   rq.rparam = &status;
 3093              		.loc 1 915 3 is_stmt 1 view .LVU1046
 3094              		.loc 1 915 13 is_stmt 0 view .LVU1047
 3095 0038 0DF10703 		add	r3, sp, #7
 3096 003c 0693     		str	r3, [sp, #24]
 916:Middlewares/ST/BlueNRG-MS/hci/controller/bluenrg_gatt_aci.c ****   rq.rlen = 1;
 3097              		.loc 1 916 3 is_stmt 1 view .LVU1048
 3098              		.loc 1 916 11 is_stmt 0 view .LVU1049
 3099 003e 0123     		movs	r3, #1
 3100 0040 0793     		str	r3, [sp, #28]
 917:Middlewares/ST/BlueNRG-MS/hci/controller/bluenrg_gatt_aci.c **** 
 918:Middlewares/ST/BlueNRG-MS/hci/controller/bluenrg_gatt_aci.c ****   if (hci_send_req(&rq, FALSE) < 0)
 3101              		.loc 1 918 3 is_stmt 1 view .LVU1050
 3102              		.loc 1 918 7 is_stmt 0 view .LVU1051
 3103 0042 02A8     		add	r0, sp, #8
 3104              	.LVL215:
 3105              		.loc 1 918 7 view .LVU1052
 3106 0044 FFF7FEFF 		bl	hci_send_req
 3107              	.LVL216:
 3108              		.loc 1 918 6 view .LVU1053
 3109 0048 0028     		cmp	r0, #0
 3110 004a 04DB     		blt	.L140
 919:Middlewares/ST/BlueNRG-MS/hci/controller/bluenrg_gatt_aci.c ****     return BLE_STATUS_TIMEOUT;
 920:Middlewares/ST/BlueNRG-MS/hci/controller/bluenrg_gatt_aci.c **** 
 921:Middlewares/ST/BlueNRG-MS/hci/controller/bluenrg_gatt_aci.c ****   return status;
 3111              		.loc 1 921 3 is_stmt 1 view .LVU1054
 3112              		.loc 1 921 10 is_stmt 0 view .LVU1055
 3113 004c 9DF80700 		ldrb	r0, [sp, #7]	@ zero_extendqisi2
 3114              	.L139:
 922:Middlewares/ST/BlueNRG-MS/hci/controller/bluenrg_gatt_aci.c **** }
 3115              		.loc 1 922 1 view .LVU1056
 3116 0050 09B0     		add	sp, sp, #36
 3117              	.LCFI104:
 3118              		.cfi_remember_state
 3119              		.cfi_def_cfa_offset 4
 3120              		@ sp needed
 3121 0052 5DF804FB 		ldr	pc, [sp], #4
 3122              	.L140:
 3123              	.LCFI105:
 3124              		.cfi_restore_state
 919:Middlewares/ST/BlueNRG-MS/hci/controller/bluenrg_gatt_aci.c ****     return BLE_STATUS_TIMEOUT;
 3125              		.loc 1 919 12 view .LVU1057
 3126 0056 FF20     		movs	r0, #255
 3127 0058 FAE7     		b	.L139
 3128              		.cfi_endproc
 3129              	.LFE317:
 3131              		.section	.text.aci_gatt_read_multiple_charac_val,"ax",%progbits
 3132              		.align	1
 3133              		.global	aci_gatt_read_multiple_charac_val
 3134              		.syntax unified
 3135              		.thumb
ARM GAS  /tmp/cc8W75dr.s 			page 72


 3136              		.thumb_func
 3138              	aci_gatt_read_multiple_charac_val:
 3139              	.LVL217:
 3140              	.LFB318:
 923:Middlewares/ST/BlueNRG-MS/hci/controller/bluenrg_gatt_aci.c **** 
 924:Middlewares/ST/BlueNRG-MS/hci/controller/bluenrg_gatt_aci.c **** tBleStatus aci_gatt_read_multiple_charac_val(uint16_t conn_handle, uint8_t num_handles, 
 925:Middlewares/ST/BlueNRG-MS/hci/controller/bluenrg_gatt_aci.c ****                                              uint8_t* set_of_handles)
 926:Middlewares/ST/BlueNRG-MS/hci/controller/bluenrg_gatt_aci.c **** {
 3141              		.loc 1 926 1 is_stmt 1 view -0
 3142              		.cfi_startproc
 3143              		@ args = 0, pretend = 0, frame = 160
 3144              		@ frame_needed = 0, uses_anonymous_args = 0
 3145              		.loc 1 926 1 is_stmt 0 view .LVU1059
 3146 0000 10B5     		push	{r4, lr}
 3147              	.LCFI106:
 3148              		.cfi_def_cfa_offset 8
 3149              		.cfi_offset 4, -8
 3150              		.cfi_offset 14, -4
 3151 0002 A8B0     		sub	sp, sp, #160
 3152              	.LCFI107:
 3153              		.cfi_def_cfa_offset 168
 3154 0004 0B46     		mov	r3, r1
 927:Middlewares/ST/BlueNRG-MS/hci/controller/bluenrg_gatt_aci.c ****   struct hci_request rq;
 3155              		.loc 1 927 3 is_stmt 1 view .LVU1060
 928:Middlewares/ST/BlueNRG-MS/hci/controller/bluenrg_gatt_aci.c ****   uint8_t status;
 3156              		.loc 1 928 3 view .LVU1061
 929:Middlewares/ST/BlueNRG-MS/hci/controller/bluenrg_gatt_aci.c ****   gatt_read_multiple_charac_val_cp cp;
 3157              		.loc 1 929 3 view .LVU1062
 930:Middlewares/ST/BlueNRG-MS/hci/controller/bluenrg_gatt_aci.c ****   
 931:Middlewares/ST/BlueNRG-MS/hci/controller/bluenrg_gatt_aci.c ****   if(num_handles*2 > sizeof(cp.set_of_handles))
 3158              		.loc 1 931 3 view .LVU1063
 3159              		.loc 1 931 17 is_stmt 0 view .LVU1064
 3160 0006 4C00     		lsls	r4, r1, #1
 3161              		.loc 1 931 5 view .LVU1065
 3162 0008 7D2C     		cmp	r4, #125
 3163 000a 2BD8     		bhi	.L144
 3164 000c 1146     		mov	r1, r2
 3165              	.LVL218:
 932:Middlewares/ST/BlueNRG-MS/hci/controller/bluenrg_gatt_aci.c ****     return BLE_STATUS_INVALID_PARAMS;
 933:Middlewares/ST/BlueNRG-MS/hci/controller/bluenrg_gatt_aci.c **** 
 934:Middlewares/ST/BlueNRG-MS/hci/controller/bluenrg_gatt_aci.c ****   cp.conn_handle = htobs(conn_handle);
 3166              		.loc 1 934 3 is_stmt 1 view .LVU1066
 3167              		.loc 1 934 18 is_stmt 0 view .LVU1067
 3168 000e ADF80400 		strh	r0, [sp, #4]	@ movhi
 935:Middlewares/ST/BlueNRG-MS/hci/controller/bluenrg_gatt_aci.c ****   cp.num_handles = htobs(num_handles);
 3169              		.loc 1 935 3 is_stmt 1 view .LVU1068
 3170              		.loc 1 935 18 is_stmt 0 view .LVU1069
 3171 0012 8DF80630 		strb	r3, [sp, #6]
 936:Middlewares/ST/BlueNRG-MS/hci/controller/bluenrg_gatt_aci.c ****   BLUENRG_memcpy(cp.set_of_handles, set_of_handles, 2*num_handles);
 3172              		.loc 1 936 3 is_stmt 1 view .LVU1070
 3173 0016 2246     		mov	r2, r4
 3174              	.LVL219:
 3175              		.loc 1 936 3 is_stmt 0 view .LVU1071
 3176 0018 0DF10700 		add	r0, sp, #7
 3177              	.LVL220:
 3178              		.loc 1 936 3 view .LVU1072
 3179 001c FFF7FEFF 		bl	memcpy
ARM GAS  /tmp/cc8W75dr.s 			page 73


 3180              	.LVL221:
 937:Middlewares/ST/BlueNRG-MS/hci/controller/bluenrg_gatt_aci.c **** 
 938:Middlewares/ST/BlueNRG-MS/hci/controller/bluenrg_gatt_aci.c ****   BLUENRG_memset(&rq, 0, sizeof(rq));
 3181              		.loc 1 938 3 is_stmt 1 view .LVU1073
 3182 0020 0021     		movs	r1, #0
 3183 0022 2291     		str	r1, [sp, #136]
 3184 0024 2391     		str	r1, [sp, #140]
 3185 0026 2491     		str	r1, [sp, #144]
 3186 0028 2591     		str	r1, [sp, #148]
 3187 002a 2691     		str	r1, [sp, #152]
 3188 002c 2791     		str	r1, [sp, #156]
 939:Middlewares/ST/BlueNRG-MS/hci/controller/bluenrg_gatt_aci.c ****   rq.ogf = OGF_VENDOR_CMD;
 3189              		.loc 1 939 3 view .LVU1074
 3190              		.loc 1 939 10 is_stmt 0 view .LVU1075
 3191 002e 3F23     		movs	r3, #63
 3192 0030 ADF88830 		strh	r3, [sp, #136]	@ movhi
 940:Middlewares/ST/BlueNRG-MS/hci/controller/bluenrg_gatt_aci.c ****   rq.ocf = OCF_GATT_READ_MULTIPLE_CHARAC_VAL;
 3193              		.loc 1 940 3 is_stmt 1 view .LVU1076
 3194              		.loc 1 940 10 is_stmt 0 view .LVU1077
 3195 0034 40F21B13 		movw	r3, #283
 3196 0038 ADF88A30 		strh	r3, [sp, #138]	@ movhi
 941:Middlewares/ST/BlueNRG-MS/hci/controller/bluenrg_gatt_aci.c ****   rq.cparam = &cp;
 3197              		.loc 1 941 3 is_stmt 1 view .LVU1078
 3198              		.loc 1 941 13 is_stmt 0 view .LVU1079
 3199 003c 01AB     		add	r3, sp, #4
 3200 003e 2493     		str	r3, [sp, #144]
 942:Middlewares/ST/BlueNRG-MS/hci/controller/bluenrg_gatt_aci.c ****   rq.clen = GATT_READ_MULTIPLE_CHARAC_VAL_CP_SIZE + 2*num_handles;
 3201              		.loc 1 942 3 is_stmt 1 view .LVU1080
 3202              		.loc 1 942 51 is_stmt 0 view .LVU1081
 3203 0040 0334     		adds	r4, r4, #3
 3204              		.loc 1 942 11 view .LVU1082
 3205 0042 2594     		str	r4, [sp, #148]
 943:Middlewares/ST/BlueNRG-MS/hci/controller/bluenrg_gatt_aci.c ****   rq.event = EVT_CMD_STATUS;
 3206              		.loc 1 943 3 is_stmt 1 view .LVU1083
 3207              		.loc 1 943 12 is_stmt 0 view .LVU1084
 3208 0044 0F23     		movs	r3, #15
 3209 0046 2393     		str	r3, [sp, #140]
 944:Middlewares/ST/BlueNRG-MS/hci/controller/bluenrg_gatt_aci.c ****   rq.rparam = &status;
 3210              		.loc 1 944 3 is_stmt 1 view .LVU1085
 3211              		.loc 1 944 13 is_stmt 0 view .LVU1086
 3212 0048 0DF18703 		add	r3, sp, #135
 3213 004c 2693     		str	r3, [sp, #152]
 945:Middlewares/ST/BlueNRG-MS/hci/controller/bluenrg_gatt_aci.c ****   rq.rlen = 1;
 3214              		.loc 1 945 3 is_stmt 1 view .LVU1087
 3215              		.loc 1 945 11 is_stmt 0 view .LVU1088
 3216 004e 0123     		movs	r3, #1
 3217 0050 2793     		str	r3, [sp, #156]
 946:Middlewares/ST/BlueNRG-MS/hci/controller/bluenrg_gatt_aci.c **** 
 947:Middlewares/ST/BlueNRG-MS/hci/controller/bluenrg_gatt_aci.c ****   if (hci_send_req(&rq, FALSE) < 0)
 3218              		.loc 1 947 3 is_stmt 1 view .LVU1089
 3219              		.loc 1 947 7 is_stmt 0 view .LVU1090
 3220 0052 22A8     		add	r0, sp, #136
 3221 0054 FFF7FEFF 		bl	hci_send_req
 3222              	.LVL222:
 3223              		.loc 1 947 6 view .LVU1091
 3224 0058 0028     		cmp	r0, #0
 3225 005a 05DB     		blt	.L145
ARM GAS  /tmp/cc8W75dr.s 			page 74


 948:Middlewares/ST/BlueNRG-MS/hci/controller/bluenrg_gatt_aci.c ****     return BLE_STATUS_TIMEOUT;
 949:Middlewares/ST/BlueNRG-MS/hci/controller/bluenrg_gatt_aci.c **** 
 950:Middlewares/ST/BlueNRG-MS/hci/controller/bluenrg_gatt_aci.c ****   return status;
 3226              		.loc 1 950 3 is_stmt 1 view .LVU1092
 3227              		.loc 1 950 10 is_stmt 0 view .LVU1093
 3228 005c 9DF88700 		ldrb	r0, [sp, #135]	@ zero_extendqisi2
 3229              	.L143:
 951:Middlewares/ST/BlueNRG-MS/hci/controller/bluenrg_gatt_aci.c **** }
 3230              		.loc 1 951 1 view .LVU1094
 3231 0060 28B0     		add	sp, sp, #160
 3232              	.LCFI108:
 3233              		.cfi_remember_state
 3234              		.cfi_def_cfa_offset 8
 3235              		@ sp needed
 3236 0062 10BD     		pop	{r4, pc}
 3237              	.LVL223:
 3238              	.L144:
 3239              	.LCFI109:
 3240              		.cfi_restore_state
 932:Middlewares/ST/BlueNRG-MS/hci/controller/bluenrg_gatt_aci.c **** 
 3241              		.loc 1 932 12 view .LVU1095
 3242 0064 4220     		movs	r0, #66
 3243              	.LVL224:
 932:Middlewares/ST/BlueNRG-MS/hci/controller/bluenrg_gatt_aci.c **** 
 3244              		.loc 1 932 12 view .LVU1096
 3245 0066 FBE7     		b	.L143
 3246              	.LVL225:
 3247              	.L145:
 948:Middlewares/ST/BlueNRG-MS/hci/controller/bluenrg_gatt_aci.c ****     return BLE_STATUS_TIMEOUT;
 3248              		.loc 1 948 12 view .LVU1097
 3249 0068 FF20     		movs	r0, #255
 3250 006a F9E7     		b	.L143
 3251              		.cfi_endproc
 3252              	.LFE318:
 3254              		.section	.text.aci_gatt_write_charac_value,"ax",%progbits
 3255              		.align	1
 3256              		.global	aci_gatt_write_charac_value
 3257              		.syntax unified
 3258              		.thumb
 3259              		.thumb_func
 3261              	aci_gatt_write_charac_value:
 3262              	.LVL226:
 3263              	.LFB319:
 952:Middlewares/ST/BlueNRG-MS/hci/controller/bluenrg_gatt_aci.c **** 
 953:Middlewares/ST/BlueNRG-MS/hci/controller/bluenrg_gatt_aci.c **** 
 954:Middlewares/ST/BlueNRG-MS/hci/controller/bluenrg_gatt_aci.c **** 
 955:Middlewares/ST/BlueNRG-MS/hci/controller/bluenrg_gatt_aci.c **** tBleStatus aci_gatt_write_charac_value(uint16_t conn_handle, uint16_t attr_handle, 
 956:Middlewares/ST/BlueNRG-MS/hci/controller/bluenrg_gatt_aci.c **** 				       uint8_t value_len, uint8_t *attr_value)
 957:Middlewares/ST/BlueNRG-MS/hci/controller/bluenrg_gatt_aci.c **** {
 3264              		.loc 1 957 1 is_stmt 1 view -0
 3265              		.cfi_startproc
 3266              		@ args = 0, pretend = 0, frame = 160
 3267              		@ frame_needed = 0, uses_anonymous_args = 0
 958:Middlewares/ST/BlueNRG-MS/hci/controller/bluenrg_gatt_aci.c ****   struct hci_request rq;
 3268              		.loc 1 958 3 view .LVU1099
 959:Middlewares/ST/BlueNRG-MS/hci/controller/bluenrg_gatt_aci.c ****   uint8_t status;
 3269              		.loc 1 959 3 view .LVU1100
ARM GAS  /tmp/cc8W75dr.s 			page 75


 960:Middlewares/ST/BlueNRG-MS/hci/controller/bluenrg_gatt_aci.c ****   uint8_t buffer[HCI_MAX_PAYLOAD_SIZE];
 3270              		.loc 1 960 3 view .LVU1101
 961:Middlewares/ST/BlueNRG-MS/hci/controller/bluenrg_gatt_aci.c ****   uint8_t indx = 0;
 3271              		.loc 1 961 3 view .LVU1102
 962:Middlewares/ST/BlueNRG-MS/hci/controller/bluenrg_gatt_aci.c ****     
 963:Middlewares/ST/BlueNRG-MS/hci/controller/bluenrg_gatt_aci.c ****   if ((value_len+5) > HCI_MAX_PAYLOAD_SIZE)
 3272              		.loc 1 963 3 view .LVU1103
 3273              		.loc 1 963 6 is_stmt 0 view .LVU1104
 3274 0000 7B2A     		cmp	r2, #123
 3275 0002 30D8     		bhi	.L149
 957:Middlewares/ST/BlueNRG-MS/hci/controller/bluenrg_gatt_aci.c ****   struct hci_request rq;
 3276              		.loc 1 957 1 view .LVU1105
 3277 0004 10B5     		push	{r4, lr}
 3278              	.LCFI110:
 3279              		.cfi_def_cfa_offset 8
 3280              		.cfi_offset 4, -8
 3281              		.cfi_offset 14, -4
 3282 0006 A8B0     		sub	sp, sp, #160
 3283              	.LCFI111:
 3284              		.cfi_def_cfa_offset 168
 3285 0008 1446     		mov	r4, r2
 964:Middlewares/ST/BlueNRG-MS/hci/controller/bluenrg_gatt_aci.c ****     return BLE_STATUS_INVALID_PARAMS;
 965:Middlewares/ST/BlueNRG-MS/hci/controller/bluenrg_gatt_aci.c **** 
 966:Middlewares/ST/BlueNRG-MS/hci/controller/bluenrg_gatt_aci.c ****   conn_handle = htobs(conn_handle);
 3286              		.loc 1 966 3 is_stmt 1 view .LVU1106
 967:Middlewares/ST/BlueNRG-MS/hci/controller/bluenrg_gatt_aci.c ****   BLUENRG_memcpy(buffer + indx, &conn_handle, 2);
 3287              		.loc 1 967 3 view .LVU1107
 3288 000a ADF80400 		strh	r0, [sp, #4]	@ movhi
 968:Middlewares/ST/BlueNRG-MS/hci/controller/bluenrg_gatt_aci.c ****   indx += 2;
 3289              		.loc 1 968 3 view .LVU1108
 3290              	.LVL227:
 969:Middlewares/ST/BlueNRG-MS/hci/controller/bluenrg_gatt_aci.c ****     
 970:Middlewares/ST/BlueNRG-MS/hci/controller/bluenrg_gatt_aci.c ****   attr_handle = htobs(attr_handle);
 3291              		.loc 1 970 3 view .LVU1109
 971:Middlewares/ST/BlueNRG-MS/hci/controller/bluenrg_gatt_aci.c ****   BLUENRG_memcpy(buffer + indx, &attr_handle, 2);
 3292              		.loc 1 971 3 view .LVU1110
 3293 000e ADF80610 		strh	r1, [sp, #6]	@ movhi
 972:Middlewares/ST/BlueNRG-MS/hci/controller/bluenrg_gatt_aci.c ****   indx += 2;
 3294              		.loc 1 972 3 view .LVU1111
 3295              	.LVL228:
 973:Middlewares/ST/BlueNRG-MS/hci/controller/bluenrg_gatt_aci.c **** 
 974:Middlewares/ST/BlueNRG-MS/hci/controller/bluenrg_gatt_aci.c ****   buffer[indx] = value_len;
 3296              		.loc 1 974 3 view .LVU1112
 3297              		.loc 1 974 16 is_stmt 0 view .LVU1113
 3298 0012 8DF80820 		strb	r2, [sp, #8]
 975:Middlewares/ST/BlueNRG-MS/hci/controller/bluenrg_gatt_aci.c ****   indx++;
 3299              		.loc 1 975 3 is_stmt 1 view .LVU1114
 3300              	.LVL229:
 976:Middlewares/ST/BlueNRG-MS/hci/controller/bluenrg_gatt_aci.c ****         
 977:Middlewares/ST/BlueNRG-MS/hci/controller/bluenrg_gatt_aci.c ****   BLUENRG_memcpy(buffer + indx, attr_value, value_len);
 3301              		.loc 1 977 3 view .LVU1115
 3302 0016 1946     		mov	r1, r3
 3303              	.LVL230:
 3304              		.loc 1 977 3 is_stmt 0 view .LVU1116
 3305 0018 0DF10900 		add	r0, sp, #9
 3306              	.LVL231:
 3307              		.loc 1 977 3 view .LVU1117
ARM GAS  /tmp/cc8W75dr.s 			page 76


 3308 001c FFF7FEFF 		bl	memcpy
 3309              	.LVL232:
 978:Middlewares/ST/BlueNRG-MS/hci/controller/bluenrg_gatt_aci.c ****   indx +=  value_len;
 3310              		.loc 1 978 3 is_stmt 1 view .LVU1118
 3311              		.loc 1 978 8 is_stmt 0 view .LVU1119
 3312 0020 0534     		adds	r4, r4, #5
 3313 0022 E4B2     		uxtb	r4, r4
 3314              	.LVL233:
 979:Middlewares/ST/BlueNRG-MS/hci/controller/bluenrg_gatt_aci.c **** 
 980:Middlewares/ST/BlueNRG-MS/hci/controller/bluenrg_gatt_aci.c ****   BLUENRG_memset(&rq, 0, sizeof(rq));
 3315              		.loc 1 980 3 is_stmt 1 view .LVU1120
 3316 0024 0021     		movs	r1, #0
 3317 0026 2291     		str	r1, [sp, #136]
 3318 0028 2391     		str	r1, [sp, #140]
 3319 002a 2491     		str	r1, [sp, #144]
 3320 002c 2591     		str	r1, [sp, #148]
 3321 002e 2691     		str	r1, [sp, #152]
 3322 0030 2791     		str	r1, [sp, #156]
 981:Middlewares/ST/BlueNRG-MS/hci/controller/bluenrg_gatt_aci.c ****   rq.ogf = OGF_VENDOR_CMD;
 3323              		.loc 1 981 3 view .LVU1121
 3324              		.loc 1 981 10 is_stmt 0 view .LVU1122
 3325 0032 3F23     		movs	r3, #63
 3326 0034 ADF88830 		strh	r3, [sp, #136]	@ movhi
 982:Middlewares/ST/BlueNRG-MS/hci/controller/bluenrg_gatt_aci.c ****   rq.ocf = OCF_GATT_WRITE_CHAR_VALUE;
 3327              		.loc 1 982 3 is_stmt 1 view .LVU1123
 3328              		.loc 1 982 10 is_stmt 0 view .LVU1124
 3329 0038 4FF48E73 		mov	r3, #284
 3330 003c ADF88A30 		strh	r3, [sp, #138]	@ movhi
 983:Middlewares/ST/BlueNRG-MS/hci/controller/bluenrg_gatt_aci.c ****   rq.cparam = (void *)buffer;
 3331              		.loc 1 983 3 is_stmt 1 view .LVU1125
 3332              		.loc 1 983 13 is_stmt 0 view .LVU1126
 3333 0040 01AB     		add	r3, sp, #4
 3334 0042 2493     		str	r3, [sp, #144]
 984:Middlewares/ST/BlueNRG-MS/hci/controller/bluenrg_gatt_aci.c ****   rq.clen = indx;
 3335              		.loc 1 984 3 is_stmt 1 view .LVU1127
 3336              		.loc 1 984 11 is_stmt 0 view .LVU1128
 3337 0044 2594     		str	r4, [sp, #148]
 985:Middlewares/ST/BlueNRG-MS/hci/controller/bluenrg_gatt_aci.c ****   rq.event = EVT_CMD_STATUS;
 3338              		.loc 1 985 3 is_stmt 1 view .LVU1129
 3339              		.loc 1 985 12 is_stmt 0 view .LVU1130
 3340 0046 0F23     		movs	r3, #15
 3341 0048 2393     		str	r3, [sp, #140]
 986:Middlewares/ST/BlueNRG-MS/hci/controller/bluenrg_gatt_aci.c ****   rq.rparam = &status;
 3342              		.loc 1 986 3 is_stmt 1 view .LVU1131
 3343              		.loc 1 986 13 is_stmt 0 view .LVU1132
 3344 004a 0DF18703 		add	r3, sp, #135
 3345 004e 2693     		str	r3, [sp, #152]
 987:Middlewares/ST/BlueNRG-MS/hci/controller/bluenrg_gatt_aci.c ****   rq.rlen = 1;
 3346              		.loc 1 987 3 is_stmt 1 view .LVU1133
 3347              		.loc 1 987 11 is_stmt 0 view .LVU1134
 3348 0050 0123     		movs	r3, #1
 3349 0052 2793     		str	r3, [sp, #156]
 988:Middlewares/ST/BlueNRG-MS/hci/controller/bluenrg_gatt_aci.c **** 
 989:Middlewares/ST/BlueNRG-MS/hci/controller/bluenrg_gatt_aci.c ****   if (hci_send_req(&rq, FALSE) < 0)
 3350              		.loc 1 989 3 is_stmt 1 view .LVU1135
 3351              		.loc 1 989 7 is_stmt 0 view .LVU1136
 3352 0054 22A8     		add	r0, sp, #136
ARM GAS  /tmp/cc8W75dr.s 			page 77


 3353 0056 FFF7FEFF 		bl	hci_send_req
 3354              	.LVL234:
 3355              		.loc 1 989 6 view .LVU1137
 3356 005a 0028     		cmp	r0, #0
 3357 005c 05DB     		blt	.L150
 990:Middlewares/ST/BlueNRG-MS/hci/controller/bluenrg_gatt_aci.c ****     return BLE_STATUS_TIMEOUT;
 991:Middlewares/ST/BlueNRG-MS/hci/controller/bluenrg_gatt_aci.c **** 
 992:Middlewares/ST/BlueNRG-MS/hci/controller/bluenrg_gatt_aci.c ****   return status;
 3358              		.loc 1 992 3 is_stmt 1 view .LVU1138
 3359              		.loc 1 992 10 is_stmt 0 view .LVU1139
 3360 005e 9DF88700 		ldrb	r0, [sp, #135]	@ zero_extendqisi2
 3361              	.L148:
 993:Middlewares/ST/BlueNRG-MS/hci/controller/bluenrg_gatt_aci.c **** }
 3362              		.loc 1 993 1 view .LVU1140
 3363 0062 28B0     		add	sp, sp, #160
 3364              	.LCFI112:
 3365              		.cfi_def_cfa_offset 8
 3366              		@ sp needed
 3367 0064 10BD     		pop	{r4, pc}
 3368              	.LVL235:
 3369              	.L149:
 3370              	.LCFI113:
 3371              		.cfi_def_cfa_offset 0
 3372              		.cfi_restore 4
 3373              		.cfi_restore 14
 964:Middlewares/ST/BlueNRG-MS/hci/controller/bluenrg_gatt_aci.c **** 
 3374              		.loc 1 964 12 view .LVU1141
 3375 0066 4220     		movs	r0, #66
 3376              	.LVL236:
 3377              		.loc 1 993 1 view .LVU1142
 3378 0068 7047     		bx	lr
 3379              	.LVL237:
 3380              	.L150:
 3381              	.LCFI114:
 3382              		.cfi_def_cfa_offset 168
 3383              		.cfi_offset 4, -8
 3384              		.cfi_offset 14, -4
 990:Middlewares/ST/BlueNRG-MS/hci/controller/bluenrg_gatt_aci.c ****     return BLE_STATUS_TIMEOUT;
 3385              		.loc 1 990 12 view .LVU1143
 3386 006a FF20     		movs	r0, #255
 3387 006c F9E7     		b	.L148
 3388              		.cfi_endproc
 3389              	.LFE319:
 3391              		.section	.text.aci_gatt_write_long_charac_val,"ax",%progbits
 3392              		.align	1
 3393              		.global	aci_gatt_write_long_charac_val
 3394              		.syntax unified
 3395              		.thumb
 3396              		.thumb_func
 3398              	aci_gatt_write_long_charac_val:
 3399              	.LVL238:
 3400              	.LFB320:
 994:Middlewares/ST/BlueNRG-MS/hci/controller/bluenrg_gatt_aci.c **** 
 995:Middlewares/ST/BlueNRG-MS/hci/controller/bluenrg_gatt_aci.c **** tBleStatus aci_gatt_write_long_charac_val(uint16_t conn_handle, uint16_t attr_handle,
 996:Middlewares/ST/BlueNRG-MS/hci/controller/bluenrg_gatt_aci.c ****                                           uint16_t val_offset, uint8_t val_len, const uint8_t* attr
 997:Middlewares/ST/BlueNRG-MS/hci/controller/bluenrg_gatt_aci.c **** {
 3401              		.loc 1 997 1 is_stmt 1 view -0
ARM GAS  /tmp/cc8W75dr.s 			page 78


 3402              		.cfi_startproc
 3403              		@ args = 4, pretend = 0, frame = 160
 3404              		@ frame_needed = 0, uses_anonymous_args = 0
 998:Middlewares/ST/BlueNRG-MS/hci/controller/bluenrg_gatt_aci.c ****   struct hci_request rq;
 3405              		.loc 1 998 3 view .LVU1145
 999:Middlewares/ST/BlueNRG-MS/hci/controller/bluenrg_gatt_aci.c ****   uint8_t status;
 3406              		.loc 1 999 3 view .LVU1146
1000:Middlewares/ST/BlueNRG-MS/hci/controller/bluenrg_gatt_aci.c ****   gatt_write_long_charac_val_cp cp;
 3407              		.loc 1 1000 3 view .LVU1147
1001:Middlewares/ST/BlueNRG-MS/hci/controller/bluenrg_gatt_aci.c ****   
1002:Middlewares/ST/BlueNRG-MS/hci/controller/bluenrg_gatt_aci.c ****   if(val_len > sizeof(cp.attr_val))
 3408              		.loc 1 1002 3 view .LVU1148
 3409              		.loc 1 1002 5 is_stmt 0 view .LVU1149
 3410 0000 792B     		cmp	r3, #121
 3411 0002 32D8     		bhi	.L157
 997:Middlewares/ST/BlueNRG-MS/hci/controller/bluenrg_gatt_aci.c ****   struct hci_request rq;
 3412              		.loc 1 997 1 view .LVU1150
 3413 0004 10B5     		push	{r4, lr}
 3414              	.LCFI115:
 3415              		.cfi_def_cfa_offset 8
 3416              		.cfi_offset 4, -8
 3417              		.cfi_offset 14, -4
 3418 0006 A8B0     		sub	sp, sp, #160
 3419              	.LCFI116:
 3420              		.cfi_def_cfa_offset 168
 3421 0008 1C46     		mov	r4, r3
1003:Middlewares/ST/BlueNRG-MS/hci/controller/bluenrg_gatt_aci.c ****     return BLE_STATUS_INVALID_PARAMS;
1004:Middlewares/ST/BlueNRG-MS/hci/controller/bluenrg_gatt_aci.c **** 
1005:Middlewares/ST/BlueNRG-MS/hci/controller/bluenrg_gatt_aci.c ****   cp.conn_handle = htobs(conn_handle);
 3422              		.loc 1 1005 3 is_stmt 1 view .LVU1151
 3423              		.loc 1 1005 18 is_stmt 0 view .LVU1152
 3424 000a ADF80400 		strh	r0, [sp, #4]	@ movhi
1006:Middlewares/ST/BlueNRG-MS/hci/controller/bluenrg_gatt_aci.c ****   cp.attr_handle = htobs(attr_handle);
 3425              		.loc 1 1006 3 is_stmt 1 view .LVU1153
 3426              		.loc 1 1006 18 is_stmt 0 view .LVU1154
 3427 000e ADF80610 		strh	r1, [sp, #6]	@ movhi
1007:Middlewares/ST/BlueNRG-MS/hci/controller/bluenrg_gatt_aci.c ****   cp.val_offset = htobs(val_offset);
 3428              		.loc 1 1007 3 is_stmt 1 view .LVU1155
 3429              		.loc 1 1007 17 is_stmt 0 view .LVU1156
 3430 0012 ADF80820 		strh	r2, [sp, #8]	@ movhi
1008:Middlewares/ST/BlueNRG-MS/hci/controller/bluenrg_gatt_aci.c ****   cp.val_len = val_len;
 3431              		.loc 1 1008 3 is_stmt 1 view .LVU1157
 3432              		.loc 1 1008 14 is_stmt 0 view .LVU1158
 3433 0016 8DF80A30 		strb	r3, [sp, #10]
1009:Middlewares/ST/BlueNRG-MS/hci/controller/bluenrg_gatt_aci.c ****   BLUENRG_memcpy(cp.attr_val, attr_val, val_len);
 3434              		.loc 1 1009 3 is_stmt 1 view .LVU1159
 3435 001a 1A46     		mov	r2, r3
 3436              	.LVL239:
 3437              		.loc 1 1009 3 is_stmt 0 view .LVU1160
 3438 001c 2A99     		ldr	r1, [sp, #168]
 3439              	.LVL240:
 3440              		.loc 1 1009 3 view .LVU1161
 3441 001e 0DF10B00 		add	r0, sp, #11
 3442              	.LVL241:
 3443              		.loc 1 1009 3 view .LVU1162
 3444 0022 FFF7FEFF 		bl	memcpy
 3445              	.LVL242:
ARM GAS  /tmp/cc8W75dr.s 			page 79


1010:Middlewares/ST/BlueNRG-MS/hci/controller/bluenrg_gatt_aci.c **** 
1011:Middlewares/ST/BlueNRG-MS/hci/controller/bluenrg_gatt_aci.c ****   BLUENRG_memset(&rq, 0, sizeof(rq));
 3446              		.loc 1 1011 3 is_stmt 1 view .LVU1163
 3447 0026 0021     		movs	r1, #0
 3448 0028 2291     		str	r1, [sp, #136]
 3449 002a 2391     		str	r1, [sp, #140]
 3450 002c 2491     		str	r1, [sp, #144]
 3451 002e 2591     		str	r1, [sp, #148]
 3452 0030 2691     		str	r1, [sp, #152]
 3453 0032 2791     		str	r1, [sp, #156]
1012:Middlewares/ST/BlueNRG-MS/hci/controller/bluenrg_gatt_aci.c ****   rq.ogf = OGF_VENDOR_CMD;
 3454              		.loc 1 1012 3 view .LVU1164
 3455              		.loc 1 1012 10 is_stmt 0 view .LVU1165
 3456 0034 3F23     		movs	r3, #63
 3457 0036 ADF88830 		strh	r3, [sp, #136]	@ movhi
1013:Middlewares/ST/BlueNRG-MS/hci/controller/bluenrg_gatt_aci.c ****   rq.ocf = OCF_GATT_WRITE_LONG_CHARAC_VAL;
 3458              		.loc 1 1013 3 is_stmt 1 view .LVU1166
 3459              		.loc 1 1013 10 is_stmt 0 view .LVU1167
 3460 003a 40F21D13 		movw	r3, #285
 3461 003e ADF88A30 		strh	r3, [sp, #138]	@ movhi
1014:Middlewares/ST/BlueNRG-MS/hci/controller/bluenrg_gatt_aci.c ****   rq.cparam = &cp;
 3462              		.loc 1 1014 3 is_stmt 1 view .LVU1168
 3463              		.loc 1 1014 13 is_stmt 0 view .LVU1169
 3464 0042 01AB     		add	r3, sp, #4
 3465 0044 2493     		str	r3, [sp, #144]
1015:Middlewares/ST/BlueNRG-MS/hci/controller/bluenrg_gatt_aci.c ****   rq.clen = GATT_WRITE_LONG_CHARAC_VAL_CP_SIZE + val_len;
 3466              		.loc 1 1015 3 is_stmt 1 view .LVU1170
 3467              		.loc 1 1015 48 is_stmt 0 view .LVU1171
 3468 0046 0734     		adds	r4, r4, #7
 3469              		.loc 1 1015 11 view .LVU1172
