ARM GAS  /tmp/cc11VlkJ.s 			page 1


   1              		.cpu cortex-m4
   2              		.arch armv7e-m
   3              		.fpu fpv4-sp-d16
   4              		.eabi_attribute 27, 1
   5              		.eabi_attribute 28, 1
   6              		.eabi_attribute 20, 1
   7              		.eabi_attribute 21, 1
   8              		.eabi_attribute 23, 3
   9              		.eabi_attribute 24, 1
  10              		.eabi_attribute 25, 1
  11              		.eabi_attribute 26, 1
  12              		.eabi_attribute 30, 1
  13              		.eabi_attribute 34, 1
  14              		.eabi_attribute 18, 4
  15              		.file	"hci_le.c"
  16              		.text
  17              	.Ltext0:
  18              		.cfi_sections	.debug_frame
  19              		.file 1 "Middlewares/ST/BlueNRG-MS/hci/hci_le.c"
  20              		.section	.text.hci_reset,"ax",%progbits
  21              		.align	1
  22              		.global	hci_reset
  23              		.syntax unified
  24              		.thumb
  25              		.thumb_func
  27              	hci_reset:
  28              	.LFB292:
   1:Middlewares/ST/BlueNRG-MS/hci/hci_le.c **** /**
   2:Middlewares/ST/BlueNRG-MS/hci/hci_le.c ****   ******************************************************************************
   3:Middlewares/ST/BlueNRG-MS/hci/hci_le.c ****   * @file    hci_le.c
   4:Middlewares/ST/BlueNRG-MS/hci/hci_le.c ****   * @author  AMG RF  Application Team
   5:Middlewares/ST/BlueNRG-MS/hci/hci_le.c ****   * @brief   Function for managing HCI interface
   6:Middlewares/ST/BlueNRG-MS/hci/hci_le.c ****   ******************************************************************************
   7:Middlewares/ST/BlueNRG-MS/hci/hci_le.c ****   * @attention
   8:Middlewares/ST/BlueNRG-MS/hci/hci_le.c ****   *
   9:Middlewares/ST/BlueNRG-MS/hci/hci_le.c ****   * Copyright (c) 2013 STMicroelectronics.
  10:Middlewares/ST/BlueNRG-MS/hci/hci_le.c ****   * All rights reserved.
  11:Middlewares/ST/BlueNRG-MS/hci/hci_le.c ****   *
  12:Middlewares/ST/BlueNRG-MS/hci/hci_le.c ****   * This software is licensed under terms that can be found in the LICENSE file
  13:Middlewares/ST/BlueNRG-MS/hci/hci_le.c ****   * in the root directory of this software component.
  14:Middlewares/ST/BlueNRG-MS/hci/hci_le.c ****   * If no LICENSE file comes with this software, it is provided AS-IS.
  15:Middlewares/ST/BlueNRG-MS/hci/hci_le.c ****   *
  16:Middlewares/ST/BlueNRG-MS/hci/hci_le.c ****   ******************************************************************************
  17:Middlewares/ST/BlueNRG-MS/hci/hci_le.c ****   */
  18:Middlewares/ST/BlueNRG-MS/hci/hci_le.c **** #include "hci_le.h"
  19:Middlewares/ST/BlueNRG-MS/hci/hci_le.c **** #include "bluenrg_types.h"
  20:Middlewares/ST/BlueNRG-MS/hci/hci_le.c **** #include "bluenrg_def.h"
  21:Middlewares/ST/BlueNRG-MS/hci/hci_le.c **** #include "hci_const.h"
  22:Middlewares/ST/BlueNRG-MS/hci/hci_le.c **** #include "bluenrg_conf.h"
  23:Middlewares/ST/BlueNRG-MS/hci/hci_le.c **** 
  24:Middlewares/ST/BlueNRG-MS/hci/hci_le.c **** #define MIN(a,b)            ((a) < (b) )? (a) : (b)
  25:Middlewares/ST/BlueNRG-MS/hci/hci_le.c **** #define MAX(a,b)            ((a) > (b) )? (a) : (b)
  26:Middlewares/ST/BlueNRG-MS/hci/hci_le.c **** 
  27:Middlewares/ST/BlueNRG-MS/hci/hci_le.c **** int hci_reset(void)
  28:Middlewares/ST/BlueNRG-MS/hci/hci_le.c **** {
  29              		.loc 1 28 1 view -0
  30              		.cfi_startproc
ARM GAS  /tmp/cc11VlkJ.s 			page 2


  31              		@ args = 0, pretend = 0, frame = 32
  32              		@ frame_needed = 0, uses_anonymous_args = 0
  33 0000 00B5     		push	{lr}
  34              	.LCFI0:
  35              		.cfi_def_cfa_offset 4
  36              		.cfi_offset 14, -4
  37 0002 89B0     		sub	sp, sp, #36
  38              	.LCFI1:
  39              		.cfi_def_cfa_offset 40
  29:Middlewares/ST/BlueNRG-MS/hci/hci_le.c ****   struct hci_request rq;
  40              		.loc 1 29 3 view .LVU1
  30:Middlewares/ST/BlueNRG-MS/hci/hci_le.c ****   uint8_t status;
  41              		.loc 1 30 3 view .LVU2
  31:Middlewares/ST/BlueNRG-MS/hci/hci_le.c ****   
  32:Middlewares/ST/BlueNRG-MS/hci/hci_le.c ****   BLUENRG_memset(&rq, 0, sizeof(rq));
  42              		.loc 1 32 3 view .LVU3
  43 0004 0021     		movs	r1, #0
  44 0006 0291     		str	r1, [sp, #8]
  45 0008 0391     		str	r1, [sp, #12]
  46 000a 0491     		str	r1, [sp, #16]
  47 000c 0591     		str	r1, [sp, #20]
  48 000e 0691     		str	r1, [sp, #24]
  49 0010 0791     		str	r1, [sp, #28]
  33:Middlewares/ST/BlueNRG-MS/hci/hci_le.c ****   rq.ogf = OGF_HOST_CTL;
  50              		.loc 1 33 3 view .LVU4
  51              		.loc 1 33 10 is_stmt 0 view .LVU5
  52 0012 0323     		movs	r3, #3
  53 0014 ADF80830 		strh	r3, [sp, #8]	@ movhi
  34:Middlewares/ST/BlueNRG-MS/hci/hci_le.c ****   rq.ocf = OCF_RESET;
  54              		.loc 1 34 3 is_stmt 1 view .LVU6
  55              		.loc 1 34 10 is_stmt 0 view .LVU7
  56 0018 ADF80A30 		strh	r3, [sp, #10]	@ movhi
  35:Middlewares/ST/BlueNRG-MS/hci/hci_le.c ****   rq.rparam = &status;
  57              		.loc 1 35 3 is_stmt 1 view .LVU8
  58              		.loc 1 35 13 is_stmt 0 view .LVU9
  59 001c 0DF10703 		add	r3, sp, #7
  60 0020 0693     		str	r3, [sp, #24]
  36:Middlewares/ST/BlueNRG-MS/hci/hci_le.c ****   rq.rlen = 1;
  61              		.loc 1 36 3 is_stmt 1 view .LVU10
  62              		.loc 1 36 11 is_stmt 0 view .LVU11
  63 0022 0123     		movs	r3, #1
  64 0024 0793     		str	r3, [sp, #28]
  37:Middlewares/ST/BlueNRG-MS/hci/hci_le.c ****   
  38:Middlewares/ST/BlueNRG-MS/hci/hci_le.c ****   if (hci_send_req(&rq, FALSE) < 0)
  65              		.loc 1 38 3 is_stmt 1 view .LVU12
  66              		.loc 1 38 7 is_stmt 0 view .LVU13
  67 0026 02A8     		add	r0, sp, #8
  68 0028 FFF7FEFF 		bl	hci_send_req
  69              	.LVL0:
  70              		.loc 1 38 6 view .LVU14
  71 002c 0028     		cmp	r0, #0
  72 002e 04DB     		blt	.L3
  39:Middlewares/ST/BlueNRG-MS/hci/hci_le.c ****     return BLE_STATUS_TIMEOUT;
  40:Middlewares/ST/BlueNRG-MS/hci/hci_le.c ****   
  41:Middlewares/ST/BlueNRG-MS/hci/hci_le.c ****   return status;  
  73              		.loc 1 41 3 is_stmt 1 view .LVU15
  74              		.loc 1 41 10 is_stmt 0 view .LVU16
ARM GAS  /tmp/cc11VlkJ.s 			page 3


  75 0030 9DF80700 		ldrb	r0, [sp, #7]	@ zero_extendqisi2
  76              	.L1:
  42:Middlewares/ST/BlueNRG-MS/hci/hci_le.c **** }
  77              		.loc 1 42 1 view .LVU17
  78 0034 09B0     		add	sp, sp, #36
  79              	.LCFI2:
  80              		.cfi_remember_state
  81              		.cfi_def_cfa_offset 4
  82              		@ sp needed
  83 0036 5DF804FB 		ldr	pc, [sp], #4
  84              	.L3:
  85              	.LCFI3:
  86              		.cfi_restore_state
  39:Middlewares/ST/BlueNRG-MS/hci/hci_le.c ****     return BLE_STATUS_TIMEOUT;
  87              		.loc 1 39 12 view .LVU18
  88 003a FF20     		movs	r0, #255
  89 003c FAE7     		b	.L1
  90              		.cfi_endproc
  91              	.LFE292:
  93              		.section	.text.hci_disconnect,"ax",%progbits
  94              		.align	1
  95              		.global	hci_disconnect
  96              		.syntax unified
  97              		.thumb
  98              		.thumb_func
 100              	hci_disconnect:
 101              	.LVL1:
 102              	.LFB293:
  43:Middlewares/ST/BlueNRG-MS/hci/hci_le.c **** 
  44:Middlewares/ST/BlueNRG-MS/hci/hci_le.c **** int hci_disconnect(uint16_t handle, uint8_t reason)
  45:Middlewares/ST/BlueNRG-MS/hci/hci_le.c **** {
 103              		.loc 1 45 1 is_stmt 1 view -0
 104              		.cfi_startproc
 105              		@ args = 0, pretend = 0, frame = 32
 106              		@ frame_needed = 0, uses_anonymous_args = 0
 107              		.loc 1 45 1 is_stmt 0 view .LVU20
 108 0000 00B5     		push	{lr}
 109              	.LCFI4:
 110              		.cfi_def_cfa_offset 4
 111              		.cfi_offset 14, -4
 112 0002 89B0     		sub	sp, sp, #36
 113              	.LCFI5:
 114              		.cfi_def_cfa_offset 40
  46:Middlewares/ST/BlueNRG-MS/hci/hci_le.c ****   struct hci_request rq;
 115              		.loc 1 46 3 is_stmt 1 view .LVU21
  47:Middlewares/ST/BlueNRG-MS/hci/hci_le.c ****   disconnect_cp cp;
 116              		.loc 1 47 3 view .LVU22
  48:Middlewares/ST/BlueNRG-MS/hci/hci_le.c ****   uint8_t status;
 117              		.loc 1 48 3 view .LVU23
  49:Middlewares/ST/BlueNRG-MS/hci/hci_le.c ****   
  50:Middlewares/ST/BlueNRG-MS/hci/hci_le.c ****   cp.handle = handle;
 118              		.loc 1 50 3 view .LVU24
 119              		.loc 1 50 13 is_stmt 0 view .LVU25
 120 0004 ADF80400 		strh	r0, [sp, #4]	@ movhi
  51:Middlewares/ST/BlueNRG-MS/hci/hci_le.c ****   cp.reason = reason;
 121              		.loc 1 51 3 is_stmt 1 view .LVU26
 122              		.loc 1 51 13 is_stmt 0 view .LVU27
ARM GAS  /tmp/cc11VlkJ.s 			page 4


 123 0008 8DF80610 		strb	r1, [sp, #6]
  52:Middlewares/ST/BlueNRG-MS/hci/hci_le.c ****   
  53:Middlewares/ST/BlueNRG-MS/hci/hci_le.c ****   BLUENRG_memset(&rq, 0, sizeof(rq));
 124              		.loc 1 53 3 is_stmt 1 view .LVU28
 125 000c 0021     		movs	r1, #0
 126              	.LVL2:
 127              		.loc 1 53 3 is_stmt 0 view .LVU29
 128 000e 0291     		str	r1, [sp, #8]
 129 0010 0391     		str	r1, [sp, #12]
 130 0012 0491     		str	r1, [sp, #16]
 131 0014 0591     		str	r1, [sp, #20]
 132 0016 0691     		str	r1, [sp, #24]
 133 0018 0791     		str	r1, [sp, #28]
  54:Middlewares/ST/BlueNRG-MS/hci/hci_le.c ****   rq.ogf = OGF_LINK_CTL;
 134              		.loc 1 54 3 is_stmt 1 view .LVU30
 135              		.loc 1 54 10 is_stmt 0 view .LVU31
 136 001a 0123     		movs	r3, #1
 137 001c ADF80830 		strh	r3, [sp, #8]	@ movhi
  55:Middlewares/ST/BlueNRG-MS/hci/hci_le.c ****   rq.ocf = OCF_DISCONNECT;
 138              		.loc 1 55 3 is_stmt 1 view .LVU32
 139              		.loc 1 55 10 is_stmt 0 view .LVU33
 140 0020 0622     		movs	r2, #6
 141 0022 ADF80A20 		strh	r2, [sp, #10]	@ movhi
  56:Middlewares/ST/BlueNRG-MS/hci/hci_le.c ****   rq.cparam = &cp;
 142              		.loc 1 56 3 is_stmt 1 view .LVU34
 143              		.loc 1 56 13 is_stmt 0 view .LVU35
 144 0026 01AA     		add	r2, sp, #4
 145 0028 0492     		str	r2, [sp, #16]
  57:Middlewares/ST/BlueNRG-MS/hci/hci_le.c ****   rq.clen = DISCONNECT_CP_SIZE;
 146              		.loc 1 57 3 is_stmt 1 view .LVU36
 147              		.loc 1 57 11 is_stmt 0 view .LVU37
 148 002a 0322     		movs	r2, #3
 149 002c 0592     		str	r2, [sp, #20]
  58:Middlewares/ST/BlueNRG-MS/hci/hci_le.c ****   rq.event = EVT_CMD_STATUS;
 150              		.loc 1 58 3 is_stmt 1 view .LVU38
 151              		.loc 1 58 12 is_stmt 0 view .LVU39
 152 002e 0F22     		movs	r2, #15
 153 0030 0392     		str	r2, [sp, #12]
  59:Middlewares/ST/BlueNRG-MS/hci/hci_le.c ****   rq.rparam = &status;
 154              		.loc 1 59 3 is_stmt 1 view .LVU40
 155              		.loc 1 59 13 is_stmt 0 view .LVU41
 156 0032 0DF10302 		add	r2, sp, #3
 157 0036 0692     		str	r2, [sp, #24]
  60:Middlewares/ST/BlueNRG-MS/hci/hci_le.c ****   rq.rlen = 1;
 158              		.loc 1 60 3 is_stmt 1 view .LVU42
 159              		.loc 1 60 11 is_stmt 0 view .LVU43
 160 0038 0793     		str	r3, [sp, #28]
  61:Middlewares/ST/BlueNRG-MS/hci/hci_le.c ****   
  62:Middlewares/ST/BlueNRG-MS/hci/hci_le.c ****   if (hci_send_req(&rq, FALSE) < 0)
 161              		.loc 1 62 3 is_stmt 1 view .LVU44
 162              		.loc 1 62 7 is_stmt 0 view .LVU45
 163 003a 02A8     		add	r0, sp, #8
 164              	.LVL3:
 165              		.loc 1 62 7 view .LVU46
 166 003c FFF7FEFF 		bl	hci_send_req
 167              	.LVL4:
 168              		.loc 1 62 6 view .LVU47
ARM GAS  /tmp/cc11VlkJ.s 			page 5


 169 0040 0028     		cmp	r0, #0
 170 0042 04DB     		blt	.L7
  63:Middlewares/ST/BlueNRG-MS/hci/hci_le.c ****     return BLE_STATUS_TIMEOUT;
  64:Middlewares/ST/BlueNRG-MS/hci/hci_le.c ****   
  65:Middlewares/ST/BlueNRG-MS/hci/hci_le.c ****   return status;  
 171              		.loc 1 65 3 is_stmt 1 view .LVU48
 172              		.loc 1 65 10 is_stmt 0 view .LVU49
 173 0044 9DF80300 		ldrb	r0, [sp, #3]	@ zero_extendqisi2
 174              	.L5:
  66:Middlewares/ST/BlueNRG-MS/hci/hci_le.c **** }
 175              		.loc 1 66 1 view .LVU50
 176 0048 09B0     		add	sp, sp, #36
 177              	.LCFI6:
 178              		.cfi_remember_state
 179              		.cfi_def_cfa_offset 4
 180              		@ sp needed
 181 004a 5DF804FB 		ldr	pc, [sp], #4
 182              	.L7:
 183              	.LCFI7:
 184              		.cfi_restore_state
  63:Middlewares/ST/BlueNRG-MS/hci/hci_le.c ****     return BLE_STATUS_TIMEOUT;
 185              		.loc 1 63 12 view .LVU51
 186 004e FF20     		movs	r0, #255
 187 0050 FAE7     		b	.L5
 188              		.cfi_endproc
 189              	.LFE293:
 191              		.section	.text.hci_le_read_local_version,"ax",%progbits
 192              		.align	1
 193              		.global	hci_le_read_local_version
 194              		.syntax unified
 195              		.thumb
 196              		.thumb_func
 198              	hci_le_read_local_version:
 199              	.LVL5:
 200              	.LFB294:
  67:Middlewares/ST/BlueNRG-MS/hci/hci_le.c **** 
  68:Middlewares/ST/BlueNRG-MS/hci/hci_le.c **** int hci_le_read_local_version(uint8_t *hci_version, uint16_t *hci_revision, uint8_t *lmp_pal_versio
  69:Middlewares/ST/BlueNRG-MS/hci/hci_le.c ****                               uint16_t *manufacturer_name, uint16_t *lmp_pal_subversion)
  70:Middlewares/ST/BlueNRG-MS/hci/hci_le.c **** {
 201              		.loc 1 70 1 is_stmt 1 view -0
 202              		.cfi_startproc
 203              		@ args = 4, pretend = 0, frame = 40
 204              		@ frame_needed = 0, uses_anonymous_args = 0
 205              		.loc 1 70 1 is_stmt 0 view .LVU53
 206 0000 2DE9F041 		push	{r4, r5, r6, r7, r8, lr}
 207              	.LCFI8:
 208              		.cfi_def_cfa_offset 24
 209              		.cfi_offset 4, -24
 210              		.cfi_offset 5, -20
 211              		.cfi_offset 6, -16
 212              		.cfi_offset 7, -12
 213              		.cfi_offset 8, -8
 214              		.cfi_offset 14, -4
 215 0004 8AB0     		sub	sp, sp, #40
 216              	.LCFI9:
 217              		.cfi_def_cfa_offset 64
 218 0006 8046     		mov	r8, r0
ARM GAS  /tmp/cc11VlkJ.s 			page 6


 219 0008 0F46     		mov	r7, r1
 220 000a 1646     		mov	r6, r2
 221 000c 1D46     		mov	r5, r3
  71:Middlewares/ST/BlueNRG-MS/hci/hci_le.c ****   struct hci_request rq;
 222              		.loc 1 71 3 is_stmt 1 view .LVU54
  72:Middlewares/ST/BlueNRG-MS/hci/hci_le.c ****   read_local_version_rp resp;
 223              		.loc 1 72 3 view .LVU55
  73:Middlewares/ST/BlueNRG-MS/hci/hci_le.c ****   
  74:Middlewares/ST/BlueNRG-MS/hci/hci_le.c ****   BLUENRG_memset(&resp, 0, sizeof(resp));
 224              		.loc 1 74 3 view .LVU56
 225 000e 01AC     		add	r4, sp, #4
 226 0010 0021     		movs	r1, #0
 227              	.LVL6:
 228              		.loc 1 74 3 is_stmt 0 view .LVU57
 229 0012 0191     		str	r1, [sp, #4]
 230 0014 0291     		str	r1, [sp, #8]
 231 0016 8DF80C10 		strb	r1, [sp, #12]
  75:Middlewares/ST/BlueNRG-MS/hci/hci_le.c ****   
  76:Middlewares/ST/BlueNRG-MS/hci/hci_le.c ****   BLUENRG_memset(&rq, 0, sizeof(rq));
 232              		.loc 1 76 3 is_stmt 1 view .LVU58
 233 001a 0491     		str	r1, [sp, #16]
 234 001c 0591     		str	r1, [sp, #20]
 235 001e 0691     		str	r1, [sp, #24]
 236 0020 0791     		str	r1, [sp, #28]
 237 0022 0891     		str	r1, [sp, #32]
 238 0024 0991     		str	r1, [sp, #36]
  77:Middlewares/ST/BlueNRG-MS/hci/hci_le.c ****   rq.ogf = OGF_INFO_PARAM;
 239              		.loc 1 77 3 view .LVU59
 240              		.loc 1 77 10 is_stmt 0 view .LVU60
 241 0026 0423     		movs	r3, #4
 242              	.LVL7:
 243              		.loc 1 77 10 view .LVU61
 244 0028 ADF81030 		strh	r3, [sp, #16]	@ movhi
  78:Middlewares/ST/BlueNRG-MS/hci/hci_le.c ****   rq.ocf = OCF_READ_LOCAL_VERSION;
 245              		.loc 1 78 3 is_stmt 1 view .LVU62
 246              		.loc 1 78 10 is_stmt 0 view .LVU63
 247 002c 0123     		movs	r3, #1
 248 002e ADF81230 		strh	r3, [sp, #18]	@ movhi
  79:Middlewares/ST/BlueNRG-MS/hci/hci_le.c ****   rq.cparam = NULL;
 249              		.loc 1 79 3 is_stmt 1 view .LVU64
  80:Middlewares/ST/BlueNRG-MS/hci/hci_le.c ****   rq.clen = 0;
 250              		.loc 1 80 3 view .LVU65
  81:Middlewares/ST/BlueNRG-MS/hci/hci_le.c ****   rq.rparam = &resp;
 251              		.loc 1 81 3 view .LVU66
 252              		.loc 1 81 13 is_stmt 0 view .LVU67
 253 0032 0894     		str	r4, [sp, #32]
  82:Middlewares/ST/BlueNRG-MS/hci/hci_le.c ****   rq.rlen = READ_LOCAL_VERSION_RP_SIZE;
 254              		.loc 1 82 3 is_stmt 1 view .LVU68
 255              		.loc 1 82 11 is_stmt 0 view .LVU69
 256 0034 0923     		movs	r3, #9
 257 0036 0993     		str	r3, [sp, #36]
  83:Middlewares/ST/BlueNRG-MS/hci/hci_le.c ****   
  84:Middlewares/ST/BlueNRG-MS/hci/hci_le.c ****   if (hci_send_req(&rq, FALSE) < 0)
 258              		.loc 1 84 3 is_stmt 1 view .LVU70
 259              		.loc 1 84 7 is_stmt 0 view .LVU71
 260 0038 04A8     		add	r0, sp, #16
 261              	.LVL8:
ARM GAS  /tmp/cc11VlkJ.s 			page 7


 262              		.loc 1 84 7 view .LVU72
 263 003a FFF7FEFF 		bl	hci_send_req
 264              	.LVL9:
 265              		.loc 1 84 6 view .LVU73
 266 003e 0028     		cmp	r0, #0
 267 0040 16DB     		blt	.L12
  85:Middlewares/ST/BlueNRG-MS/hci/hci_le.c ****     return BLE_STATUS_TIMEOUT;
  86:Middlewares/ST/BlueNRG-MS/hci/hci_le.c ****   
  87:Middlewares/ST/BlueNRG-MS/hci/hci_le.c ****   if (resp.status) {
 268              		.loc 1 87 3 is_stmt 1 view .LVU74
 269              		.loc 1 87 11 is_stmt 0 view .LVU75
 270 0042 9DF80400 		ldrb	r0, [sp, #4]	@ zero_extendqisi2
 271              		.loc 1 87 6 view .LVU76
 272 0046 80B9     		cbnz	r0, .L9
  88:Middlewares/ST/BlueNRG-MS/hci/hci_le.c ****     return resp.status;
  89:Middlewares/ST/BlueNRG-MS/hci/hci_le.c ****   }
  90:Middlewares/ST/BlueNRG-MS/hci/hci_le.c ****   
  91:Middlewares/ST/BlueNRG-MS/hci/hci_le.c ****   
  92:Middlewares/ST/BlueNRG-MS/hci/hci_le.c ****   *hci_version = resp.hci_version;
 273              		.loc 1 92 3 is_stmt 1 view .LVU77
 274              		.loc 1 92 22 is_stmt 0 view .LVU78
 275 0048 9DF80530 		ldrb	r3, [sp, #5]	@ zero_extendqisi2
 276              		.loc 1 92 16 view .LVU79
 277 004c 88F80030 		strb	r3, [r8]
  93:Middlewares/ST/BlueNRG-MS/hci/hci_le.c ****   *hci_revision =  btohs(resp.hci_revision);
 278              		.loc 1 93 3 is_stmt 1 view .LVU80
 279              		.loc 1 93 20 is_stmt 0 view .LVU81
 280 0050 BDF80630 		ldrh	r3, [sp, #6]
 281              		.loc 1 93 17 view .LVU82
 282 0054 3B80     		strh	r3, [r7]	@ movhi
  94:Middlewares/ST/BlueNRG-MS/hci/hci_le.c ****   *lmp_pal_version = resp.lmp_pal_version;
 283              		.loc 1 94 3 is_stmt 1 view .LVU83
 284              		.loc 1 94 26 is_stmt 0 view .LVU84
 285 0056 9DF80830 		ldrb	r3, [sp, #8]	@ zero_extendqisi2
 286              		.loc 1 94 20 view .LVU85
 287 005a 3370     		strb	r3, [r6]
  95:Middlewares/ST/BlueNRG-MS/hci/hci_le.c ****   *manufacturer_name = btohs(resp.manufacturer_name);
 288              		.loc 1 95 3 is_stmt 1 view .LVU86
 289              		.loc 1 95 24 is_stmt 0 view .LVU87
 290 005c BDF80930 		ldrh	r3, [sp, #9]	@ unaligned
 291              		.loc 1 95 22 view .LVU88
 292 0060 2B80     		strh	r3, [r5]	@ movhi
  96:Middlewares/ST/BlueNRG-MS/hci/hci_le.c ****   *lmp_pal_subversion = btohs(resp.lmp_pal_subversion);
 293              		.loc 1 96 3 is_stmt 1 view .LVU89
 294              		.loc 1 96 25 is_stmt 0 view .LVU90
 295 0062 BDF80B20 		ldrh	r2, [sp, #11]	@ unaligned
 296              		.loc 1 96 23 view .LVU91
 297 0066 109B     		ldr	r3, [sp, #64]
 298 0068 1A80     		strh	r2, [r3]	@ movhi
  97:Middlewares/ST/BlueNRG-MS/hci/hci_le.c ****   
  98:Middlewares/ST/BlueNRG-MS/hci/hci_le.c ****   return 0;
 299              		.loc 1 98 3 is_stmt 1 view .LVU92
 300              	.L9:
  99:Middlewares/ST/BlueNRG-MS/hci/hci_le.c **** }
 301              		.loc 1 99 1 is_stmt 0 view .LVU93
 302 006a 0AB0     		add	sp, sp, #40
 303              	.LCFI10:
ARM GAS  /tmp/cc11VlkJ.s 			page 8


 304              		.cfi_remember_state
 305              		.cfi_def_cfa_offset 24
 306              		@ sp needed
 307 006c BDE8F081 		pop	{r4, r5, r6, r7, r8, pc}
 308              	.LVL10:
 309              	.L12:
 310              	.LCFI11:
 311              		.cfi_restore_state
  85:Middlewares/ST/BlueNRG-MS/hci/hci_le.c ****   
 312              		.loc 1 85 12 view .LVU94
 313 0070 FF20     		movs	r0, #255
 314 0072 FAE7     		b	.L9
 315              		.cfi_endproc
 316              	.LFE294:
 318              		.section	.text.hci_le_read_buffer_size,"ax",%progbits
 319              		.align	1
 320              		.global	hci_le_read_buffer_size
 321              		.syntax unified
 322              		.thumb
 323              		.thumb_func
 325              	hci_le_read_buffer_size:
 326              	.LVL11:
 327              	.LFB295:
 100:Middlewares/ST/BlueNRG-MS/hci/hci_le.c **** 
 101:Middlewares/ST/BlueNRG-MS/hci/hci_le.c **** int hci_le_read_buffer_size(uint16_t *pkt_len, uint8_t *max_pkt)
 102:Middlewares/ST/BlueNRG-MS/hci/hci_le.c **** {
 328              		.loc 1 102 1 is_stmt 1 view -0
 329              		.cfi_startproc
 330              		@ args = 0, pretend = 0, frame = 32
 331              		@ frame_needed = 0, uses_anonymous_args = 0
 332              		.loc 1 102 1 is_stmt 0 view .LVU96
 333 0000 30B5     		push	{r4, r5, lr}
 334              	.LCFI12:
 335              		.cfi_def_cfa_offset 12
 336              		.cfi_offset 4, -12
 337              		.cfi_offset 5, -8
 338              		.cfi_offset 14, -4
 339 0002 89B0     		sub	sp, sp, #36
 340              	.LCFI13:
 341              		.cfi_def_cfa_offset 48
 342 0004 0546     		mov	r5, r0
 343 0006 0C46     		mov	r4, r1
 103:Middlewares/ST/BlueNRG-MS/hci/hci_le.c ****   struct hci_request rq;
 344              		.loc 1 103 3 is_stmt 1 view .LVU97
 104:Middlewares/ST/BlueNRG-MS/hci/hci_le.c ****   le_read_buffer_size_rp resp;
 345              		.loc 1 104 3 view .LVU98
 105:Middlewares/ST/BlueNRG-MS/hci/hci_le.c ****   
 106:Middlewares/ST/BlueNRG-MS/hci/hci_le.c ****   BLUENRG_memset(&resp, 0, sizeof(resp));
 346              		.loc 1 106 3 view .LVU99
 347 0008 0021     		movs	r1, #0
 348              	.LVL12:
 349              		.loc 1 106 3 is_stmt 0 view .LVU100
 350 000a 0191     		str	r1, [sp, #4]
 107:Middlewares/ST/BlueNRG-MS/hci/hci_le.c ****   
 108:Middlewares/ST/BlueNRG-MS/hci/hci_le.c ****   BLUENRG_memset(&rq, 0, sizeof(rq));
 351              		.loc 1 108 3 is_stmt 1 view .LVU101
 352 000c 0291     		str	r1, [sp, #8]
ARM GAS  /tmp/cc11VlkJ.s 			page 9


 353 000e 0391     		str	r1, [sp, #12]
 354 0010 0491     		str	r1, [sp, #16]
 355 0012 0591     		str	r1, [sp, #20]
 356 0014 0691     		str	r1, [sp, #24]
 357 0016 0791     		str	r1, [sp, #28]
 109:Middlewares/ST/BlueNRG-MS/hci/hci_le.c ****   rq.ogf = OGF_LE_CTL;
 358              		.loc 1 109 3 view .LVU102
 359              		.loc 1 109 10 is_stmt 0 view .LVU103
 360 0018 0823     		movs	r3, #8
 361 001a ADF80830 		strh	r3, [sp, #8]	@ movhi
 110:Middlewares/ST/BlueNRG-MS/hci/hci_le.c ****   rq.ocf = OCF_LE_READ_BUFFER_SIZE;
 362              		.loc 1 110 3 is_stmt 1 view .LVU104
 363              		.loc 1 110 10 is_stmt 0 view .LVU105
 364 001e 0223     		movs	r3, #2
 365 0020 ADF80A30 		strh	r3, [sp, #10]	@ movhi
 111:Middlewares/ST/BlueNRG-MS/hci/hci_le.c ****   rq.cparam = NULL;
 366              		.loc 1 111 3 is_stmt 1 view .LVU106
 112:Middlewares/ST/BlueNRG-MS/hci/hci_le.c ****   rq.clen = 0;
 367              		.loc 1 112 3 view .LVU107
 113:Middlewares/ST/BlueNRG-MS/hci/hci_le.c ****   rq.rparam = &resp;
 368              		.loc 1 113 3 view .LVU108
 369              		.loc 1 113 13 is_stmt 0 view .LVU109
 370 0024 01AB     		add	r3, sp, #4
 371 0026 0693     		str	r3, [sp, #24]
 114:Middlewares/ST/BlueNRG-MS/hci/hci_le.c ****   rq.rlen = LE_READ_BUFFER_SIZE_RP_SIZE;
 372              		.loc 1 114 3 is_stmt 1 view .LVU110
 373              		.loc 1 114 11 is_stmt 0 view .LVU111
 374 0028 0423     		movs	r3, #4
 375 002a 0793     		str	r3, [sp, #28]
 115:Middlewares/ST/BlueNRG-MS/hci/hci_le.c ****   
 116:Middlewares/ST/BlueNRG-MS/hci/hci_le.c ****   if (hci_send_req(&rq, FALSE) < 0)
 376              		.loc 1 116 3 is_stmt 1 view .LVU112
 377              		.loc 1 116 7 is_stmt 0 view .LVU113
 378 002c 02A8     		add	r0, sp, #8
 379              	.LVL13:
 380              		.loc 1 116 7 view .LVU114
 381 002e FFF7FEFF 		bl	hci_send_req
 382              	.LVL14:
 383              		.loc 1 116 6 view .LVU115
 384 0032 0028     		cmp	r0, #0
 385 0034 0ADB     		blt	.L17
 117:Middlewares/ST/BlueNRG-MS/hci/hci_le.c ****     return BLE_STATUS_TIMEOUT;
 118:Middlewares/ST/BlueNRG-MS/hci/hci_le.c ****   
 119:Middlewares/ST/BlueNRG-MS/hci/hci_le.c ****   if (resp.status) {
 386              		.loc 1 119 3 is_stmt 1 view .LVU116
 387              		.loc 1 119 11 is_stmt 0 view .LVU117
 388 0036 9DF80400 		ldrb	r0, [sp, #4]	@ zero_extendqisi2
 389              		.loc 1 119 6 view .LVU118
 390 003a 28B9     		cbnz	r0, .L14
 120:Middlewares/ST/BlueNRG-MS/hci/hci_le.c ****     return resp.status;
 121:Middlewares/ST/BlueNRG-MS/hci/hci_le.c ****   }
 122:Middlewares/ST/BlueNRG-MS/hci/hci_le.c ****   
 123:Middlewares/ST/BlueNRG-MS/hci/hci_le.c ****   *pkt_len = resp.pkt_len;
 391              		.loc 1 123 3 is_stmt 1 view .LVU119
 392              		.loc 1 123 18 is_stmt 0 view .LVU120
 393 003c BDF80530 		ldrh	r3, [sp, #5]	@ unaligned
 394              		.loc 1 123 12 view .LVU121
ARM GAS  /tmp/cc11VlkJ.s 			page 10


 395 0040 2B80     		strh	r3, [r5]	@ movhi
 124:Middlewares/ST/BlueNRG-MS/hci/hci_le.c ****   *max_pkt = resp.max_pkt;
 396              		.loc 1 124 3 is_stmt 1 view .LVU122
 397              		.loc 1 124 18 is_stmt 0 view .LVU123
 398 0042 9DF80730 		ldrb	r3, [sp, #7]	@ zero_extendqisi2
 399              		.loc 1 124 12 view .LVU124
 400 0046 2370     		strb	r3, [r4]
 125:Middlewares/ST/BlueNRG-MS/hci/hci_le.c ****   
 126:Middlewares/ST/BlueNRG-MS/hci/hci_le.c ****   return 0;
 401              		.loc 1 126 3 is_stmt 1 view .LVU125
 402              	.L14:
 127:Middlewares/ST/BlueNRG-MS/hci/hci_le.c **** }
 403              		.loc 1 127 1 is_stmt 0 view .LVU126
 404 0048 09B0     		add	sp, sp, #36
 405              	.LCFI14:
 406              		.cfi_remember_state
 407              		.cfi_def_cfa_offset 12
 408              		@ sp needed
 409 004a 30BD     		pop	{r4, r5, pc}
 410              	.LVL15:
 411              	.L17:
 412              	.LCFI15:
 413              		.cfi_restore_state
 117:Middlewares/ST/BlueNRG-MS/hci/hci_le.c ****   
 414              		.loc 1 117 12 view .LVU127
 415 004c FF20     		movs	r0, #255
 416 004e FBE7     		b	.L14
 417              		.cfi_endproc
 418              	.LFE295:
 420              		.section	.text.hci_le_set_advertising_parameters,"ax",%progbits
 421              		.align	1
 422              		.global	hci_le_set_advertising_parameters
 423              		.syntax unified
 424              		.thumb
 425              		.thumb_func
 427              	hci_le_set_advertising_parameters:
 428              	.LVL16:
 429              	.LFB296:
 128:Middlewares/ST/BlueNRG-MS/hci/hci_le.c **** 
 129:Middlewares/ST/BlueNRG-MS/hci/hci_le.c **** int hci_le_set_advertising_parameters(uint16_t min_interval, uint16_t max_interval, uint8_t advtype
 130:Middlewares/ST/BlueNRG-MS/hci/hci_le.c ****                                       uint8_t own_bdaddr_type, uint8_t direct_bdaddr_type, const tB
 131:Middlewares/ST/BlueNRG-MS/hci/hci_le.c ****                                       uint8_t filter)
 132:Middlewares/ST/BlueNRG-MS/hci/hci_le.c **** {
 430              		.loc 1 132 1 is_stmt 1 view -0
 431              		.cfi_startproc
 432              		@ args = 16, pretend = 0, frame = 48
 433              		@ frame_needed = 0, uses_anonymous_args = 0
 434              		.loc 1 132 1 is_stmt 0 view .LVU129
 435 0000 30B5     		push	{r4, r5, lr}
 436              	.LCFI16:
 437              		.cfi_def_cfa_offset 12
 438              		.cfi_offset 4, -12
 439              		.cfi_offset 5, -8
 440              		.cfi_offset 14, -4
 441 0002 8DB0     		sub	sp, sp, #52
 442              	.LCFI17:
 443              		.cfi_def_cfa_offset 64
ARM GAS  /tmp/cc11VlkJ.s 			page 11


 444 0004 119D     		ldr	r5, [sp, #68]
 133:Middlewares/ST/BlueNRG-MS/hci/hci_le.c ****   struct hci_request rq;
 445              		.loc 1 133 3 is_stmt 1 view .LVU130
 134:Middlewares/ST/BlueNRG-MS/hci/hci_le.c ****   le_set_adv_parameters_cp adv_cp;
 446              		.loc 1 134 3 view .LVU131
 135:Middlewares/ST/BlueNRG-MS/hci/hci_le.c ****   uint8_t status;
 447              		.loc 1 135 3 view .LVU132
 136:Middlewares/ST/BlueNRG-MS/hci/hci_le.c ****   
 137:Middlewares/ST/BlueNRG-MS/hci/hci_le.c ****   BLUENRG_memset(&adv_cp, 0, sizeof(adv_cp));
 448              		.loc 1 137 3 view .LVU133
 449 0006 0024     		movs	r4, #0
 450 0008 0294     		str	r4, [sp, #8]
 451 000a 0394     		str	r4, [sp, #12]
 452 000c 0494     		str	r4, [sp, #16]
 453 000e CDF81340 		str	r4, [sp, #19]	@ unaligned
 138:Middlewares/ST/BlueNRG-MS/hci/hci_le.c ****   adv_cp.min_interval = min_interval;
 454              		.loc 1 138 3 view .LVU134
 455              		.loc 1 138 23 is_stmt 0 view .LVU135
 456 0012 ADF80800 		strh	r0, [sp, #8]	@ movhi
 139:Middlewares/ST/BlueNRG-MS/hci/hci_le.c ****   adv_cp.max_interval = max_interval;
 457              		.loc 1 139 3 is_stmt 1 view .LVU136
 458              		.loc 1 139 23 is_stmt 0 view .LVU137
 459 0016 ADF80A10 		strh	r1, [sp, #10]	@ movhi
 140:Middlewares/ST/BlueNRG-MS/hci/hci_le.c ****   adv_cp.advtype = advtype;
 460              		.loc 1 140 3 is_stmt 1 view .LVU138
 461              		.loc 1 140 18 is_stmt 0 view .LVU139
 462 001a 8DF80C20 		strb	r2, [sp, #12]
 141:Middlewares/ST/BlueNRG-MS/hci/hci_le.c ****   adv_cp.own_bdaddr_type = own_bdaddr_type;
 463              		.loc 1 141 3 is_stmt 1 view .LVU140
 464              		.loc 1 141 26 is_stmt 0 view .LVU141
 465 001e 8DF80D30 		strb	r3, [sp, #13]
 142:Middlewares/ST/BlueNRG-MS/hci/hci_le.c ****   adv_cp.direct_bdaddr_type = direct_bdaddr_type;
 466              		.loc 1 142 3 is_stmt 1 view .LVU142
 467              		.loc 1 142 29 is_stmt 0 view .LVU143
 468 0022 9DF84030 		ldrb	r3, [sp, #64]	@ zero_extendqisi2
 469              	.LVL17:
 470              		.loc 1 142 29 view .LVU144
 471 0026 8DF80E30 		strb	r3, [sp, #14]
 143:Middlewares/ST/BlueNRG-MS/hci/hci_le.c ****   if(direct_bdaddr != NULL)
 472              		.loc 1 143 3 is_stmt 1 view .LVU145
 473              		.loc 1 143 5 is_stmt 0 view .LVU146
 474 002a 2DB1     		cbz	r5, .L20
 144:Middlewares/ST/BlueNRG-MS/hci/hci_le.c ****     BLUENRG_memcpy(adv_cp.direct_bdaddr,direct_bdaddr,sizeof(adv_cp.direct_bdaddr));
 475              		.loc 1 144 5 is_stmt 1 view .LVU147
 476 002c 2B68     		ldr	r3, [r5]	@ unaligned
 477 002e CDF80F30 		str	r3, [sp, #15]	@ unaligned
 478 0032 AB88     		ldrh	r3, [r5, #4]	@ unaligned
 479 0034 ADF81330 		strh	r3, [sp, #19]	@ unaligned
 480              	.L20:
 145:Middlewares/ST/BlueNRG-MS/hci/hci_le.c ****   adv_cp.chan_map = chan_map;
 481              		.loc 1 145 3 view .LVU148
 482              		.loc 1 145 19 is_stmt 0 view .LVU149
 483 0038 9DF84830 		ldrb	r3, [sp, #72]	@ zero_extendqisi2
 484 003c 8DF81530 		strb	r3, [sp, #21]
 146:Middlewares/ST/BlueNRG-MS/hci/hci_le.c ****   adv_cp.filter = filter;
 485              		.loc 1 146 3 is_stmt 1 view .LVU150
 486              		.loc 1 146 17 is_stmt 0 view .LVU151
ARM GAS  /tmp/cc11VlkJ.s 			page 12


 487 0040 9DF84C30 		ldrb	r3, [sp, #76]	@ zero_extendqisi2
 488 0044 8DF81630 		strb	r3, [sp, #22]
 147:Middlewares/ST/BlueNRG-MS/hci/hci_le.c ****   
 148:Middlewares/ST/BlueNRG-MS/hci/hci_le.c ****   BLUENRG_memset(&rq, 0, sizeof(rq));
 489              		.loc 1 148 3 is_stmt 1 view .LVU152
 490 0048 0021     		movs	r1, #0
 491              	.LVL18:
 492              		.loc 1 148 3 is_stmt 0 view .LVU153
 493 004a 0691     		str	r1, [sp, #24]
 494 004c 0791     		str	r1, [sp, #28]
 495 004e 0891     		str	r1, [sp, #32]
 496 0050 0991     		str	r1, [sp, #36]
 497 0052 0A91     		str	r1, [sp, #40]
 498 0054 0B91     		str	r1, [sp, #44]
 149:Middlewares/ST/BlueNRG-MS/hci/hci_le.c ****   rq.ogf = OGF_LE_CTL;
 499              		.loc 1 149 3 is_stmt 1 view .LVU154
 500              		.loc 1 149 10 is_stmt 0 view .LVU155
 501 0056 0823     		movs	r3, #8
 502 0058 ADF81830 		strh	r3, [sp, #24]	@ movhi
 150:Middlewares/ST/BlueNRG-MS/hci/hci_le.c ****   rq.ocf = OCF_LE_SET_ADV_PARAMETERS;
 503              		.loc 1 150 3 is_stmt 1 view .LVU156
 504              		.loc 1 150 10 is_stmt 0 view .LVU157
 505 005c 0623     		movs	r3, #6
 506 005e ADF81A30 		strh	r3, [sp, #26]	@ movhi
 151:Middlewares/ST/BlueNRG-MS/hci/hci_le.c ****   rq.cparam = &adv_cp;
 507              		.loc 1 151 3 is_stmt 1 view .LVU158
 508              		.loc 1 151 13 is_stmt 0 view .LVU159
 509 0062 02AB     		add	r3, sp, #8
 510 0064 0893     		str	r3, [sp, #32]
 152:Middlewares/ST/BlueNRG-MS/hci/hci_le.c ****   rq.clen = LE_SET_ADV_PARAMETERS_CP_SIZE;
 511              		.loc 1 152 3 is_stmt 1 view .LVU160
 512              		.loc 1 152 11 is_stmt 0 view .LVU161
 513 0066 0F23     		movs	r3, #15
 514 0068 0993     		str	r3, [sp, #36]
 153:Middlewares/ST/BlueNRG-MS/hci/hci_le.c ****   rq.rparam = &status;
 515              		.loc 1 153 3 is_stmt 1 view .LVU162
 516              		.loc 1 153 13 is_stmt 0 view .LVU163
 517 006a 0DF10703 		add	r3, sp, #7
 518 006e 0A93     		str	r3, [sp, #40]
 154:Middlewares/ST/BlueNRG-MS/hci/hci_le.c ****   rq.rlen = 1;
 519              		.loc 1 154 3 is_stmt 1 view .LVU164
 520              		.loc 1 154 11 is_stmt 0 view .LVU165
 521 0070 0123     		movs	r3, #1
 522 0072 0B93     		str	r3, [sp, #44]
 155:Middlewares/ST/BlueNRG-MS/hci/hci_le.c ****   
 156:Middlewares/ST/BlueNRG-MS/hci/hci_le.c ****   if (hci_send_req(&rq, FALSE) < 0)
 523              		.loc 1 156 3 is_stmt 1 view .LVU166
 524              		.loc 1 156 7 is_stmt 0 view .LVU167
 525 0074 06A8     		add	r0, sp, #24
 526              	.LVL19:
 527              		.loc 1 156 7 view .LVU168
 528 0076 FFF7FEFF 		bl	hci_send_req
 529              	.LVL20:
 530              		.loc 1 156 6 view .LVU169
 531 007a 0028     		cmp	r0, #0
 532 007c 03DB     		blt	.L22
 157:Middlewares/ST/BlueNRG-MS/hci/hci_le.c ****     return BLE_STATUS_TIMEOUT;
ARM GAS  /tmp/cc11VlkJ.s 			page 13


 158:Middlewares/ST/BlueNRG-MS/hci/hci_le.c ****   
 159:Middlewares/ST/BlueNRG-MS/hci/hci_le.c ****   return status;
 533              		.loc 1 159 3 is_stmt 1 view .LVU170
 534              		.loc 1 159 10 is_stmt 0 view .LVU171
 535 007e 9DF80700 		ldrb	r0, [sp, #7]	@ zero_extendqisi2
 536              	.L19:
 160:Middlewares/ST/BlueNRG-MS/hci/hci_le.c **** }
 537              		.loc 1 160 1 view .LVU172
 538 0082 0DB0     		add	sp, sp, #52
 539              	.LCFI18:
 540              		.cfi_remember_state
 541              		.cfi_def_cfa_offset 12
 542              		@ sp needed
 543 0084 30BD     		pop	{r4, r5, pc}
 544              	.LVL21:
 545              	.L22:
 546              	.LCFI19:
 547              		.cfi_restore_state
 157:Middlewares/ST/BlueNRG-MS/hci/hci_le.c ****     return BLE_STATUS_TIMEOUT;
 548              		.loc 1 157 12 view .LVU173
 549 0086 FF20     		movs	r0, #255
 550 0088 FBE7     		b	.L19
 551              		.cfi_endproc
 552              	.LFE296:
 554              		.section	.text.hci_le_set_advertising_data,"ax",%progbits
 555              		.align	1
 556              		.global	hci_le_set_advertising_data
 557              		.syntax unified
 558              		.thumb
 559              		.thumb_func
 561              	hci_le_set_advertising_data:
 562              	.LVL22:
 563              	.LFB297:
 161:Middlewares/ST/BlueNRG-MS/hci/hci_le.c **** 
 162:Middlewares/ST/BlueNRG-MS/hci/hci_le.c **** int hci_le_set_advertising_data(uint8_t length, const uint8_t data[])
 163:Middlewares/ST/BlueNRG-MS/hci/hci_le.c **** {
 564              		.loc 1 163 1 is_stmt 1 view -0
 565              		.cfi_startproc
 566              		@ args = 0, pretend = 0, frame = 64
 567              		@ frame_needed = 0, uses_anonymous_args = 0
 568              		.loc 1 163 1 is_stmt 0 view .LVU175
 569 0000 F0B5     		push	{r4, r5, r6, r7, lr}
 570              	.LCFI20:
 571              		.cfi_def_cfa_offset 20
 572              		.cfi_offset 4, -20
 573              		.cfi_offset 5, -16
 574              		.cfi_offset 6, -12
 575              		.cfi_offset 7, -8
 576              		.cfi_offset 14, -4
 577 0002 91B0     		sub	sp, sp, #68
 578              	.LCFI21:
 579              		.cfi_def_cfa_offset 88
 580 0004 0446     		mov	r4, r0
 581 0006 0D46     		mov	r5, r1
 164:Middlewares/ST/BlueNRG-MS/hci/hci_le.c ****   struct hci_request rq;
 582              		.loc 1 164 3 is_stmt 1 view .LVU176
 165:Middlewares/ST/BlueNRG-MS/hci/hci_le.c ****   le_set_adv_data_cp adv_cp;
ARM GAS  /tmp/cc11VlkJ.s 			page 14


 583              		.loc 1 165 3 view .LVU177
 166:Middlewares/ST/BlueNRG-MS/hci/hci_le.c ****   uint8_t status;
 584              		.loc 1 166 3 view .LVU178
 167:Middlewares/ST/BlueNRG-MS/hci/hci_le.c ****   
 168:Middlewares/ST/BlueNRG-MS/hci/hci_le.c ****   BLUENRG_memset(&adv_cp, 0, sizeof(adv_cp));
 585              		.loc 1 168 3 view .LVU179
 586 0008 02AF     		add	r7, sp, #8
 587 000a 2026     		movs	r6, #32
 588 000c 3246     		mov	r2, r6
 589 000e 0021     		movs	r1, #0
 590              	.LVL23:
 591              		.loc 1 168 3 is_stmt 0 view .LVU180
 592 0010 3846     		mov	r0, r7
 593              	.LVL24:
 594              		.loc 1 168 3 view .LVU181
 595 0012 FFF7FEFF 		bl	memset
 596              	.LVL25:
 169:Middlewares/ST/BlueNRG-MS/hci/hci_le.c ****   adv_cp.length = length;
 597              		.loc 1 169 3 is_stmt 1 view .LVU182
 598              		.loc 1 169 17 is_stmt 0 view .LVU183
 599 0016 8DF80840 		strb	r4, [sp, #8]
 170:Middlewares/ST/BlueNRG-MS/hci/hci_le.c ****   BLUENRG_memcpy(adv_cp.data, data, MIN(31,length));
 600              		.loc 1 170 3 is_stmt 1 view .LVU184
 601 001a 2246     		mov	r2, r4
 602 001c 1F2C     		cmp	r4, #31
 603 001e 28BF     		it	cs
 604 0020 1F22     		movcs	r2, #31
 605 0022 2946     		mov	r1, r5
 606 0024 0DF10900 		add	r0, sp, #9
 607 0028 FFF7FEFF 		bl	memcpy
 608              	.LVL26:
 171:Middlewares/ST/BlueNRG-MS/hci/hci_le.c ****   
 172:Middlewares/ST/BlueNRG-MS/hci/hci_le.c ****   BLUENRG_memset(&rq, 0, sizeof(rq));
 609              		.loc 1 172 3 view .LVU185
 610 002c 0021     		movs	r1, #0
 611 002e 0A91     		str	r1, [sp, #40]
 612 0030 0B91     		str	r1, [sp, #44]
 613 0032 0C91     		str	r1, [sp, #48]
 614 0034 0D91     		str	r1, [sp, #52]
 615 0036 0E91     		str	r1, [sp, #56]
 616 0038 0F91     		str	r1, [sp, #60]
 173:Middlewares/ST/BlueNRG-MS/hci/hci_le.c ****   rq.ogf = OGF_LE_CTL;
 617              		.loc 1 173 3 view .LVU186
 618              		.loc 1 173 10 is_stmt 0 view .LVU187
 619 003a 0823     		movs	r3, #8
 620 003c ADF82830 		strh	r3, [sp, #40]	@ movhi
 174:Middlewares/ST/BlueNRG-MS/hci/hci_le.c ****   rq.ocf = OCF_LE_SET_ADV_DATA;
 621              		.loc 1 174 3 is_stmt 1 view .LVU188
 622              		.loc 1 174 10 is_stmt 0 view .LVU189
 623 0040 ADF82A30 		strh	r3, [sp, #42]	@ movhi
 175:Middlewares/ST/BlueNRG-MS/hci/hci_le.c ****   rq.cparam = &adv_cp;
 624              		.loc 1 175 3 is_stmt 1 view .LVU190
 625              		.loc 1 175 13 is_stmt 0 view .LVU191
 626 0044 0C97     		str	r7, [sp, #48]
 176:Middlewares/ST/BlueNRG-MS/hci/hci_le.c ****   rq.clen = LE_SET_ADV_DATA_CP_SIZE;
 627              		.loc 1 176 3 is_stmt 1 view .LVU192
 628              		.loc 1 176 11 is_stmt 0 view .LVU193
ARM GAS  /tmp/cc11VlkJ.s 			page 15


 629 0046 0D96     		str	r6, [sp, #52]
 177:Middlewares/ST/BlueNRG-MS/hci/hci_le.c ****   rq.rparam = &status;
 630              		.loc 1 177 3 is_stmt 1 view .LVU194
 631              		.loc 1 177 13 is_stmt 0 view .LVU195
 632 0048 0DF10703 		add	r3, sp, #7
 633 004c 0E93     		str	r3, [sp, #56]
 178:Middlewares/ST/BlueNRG-MS/hci/hci_le.c ****   rq.rlen = 1;
 634              		.loc 1 178 3 is_stmt 1 view .LVU196
 635              		.loc 1 178 11 is_stmt 0 view .LVU197
 636 004e 0123     		movs	r3, #1
 637 0050 0F93     		str	r3, [sp, #60]
 179:Middlewares/ST/BlueNRG-MS/hci/hci_le.c ****   
 180:Middlewares/ST/BlueNRG-MS/hci/hci_le.c ****   if (hci_send_req(&rq, FALSE) < 0)
 638              		.loc 1 180 3 is_stmt 1 view .LVU198
 639              		.loc 1 180 7 is_stmt 0 view .LVU199
 640 0052 0AA8     		add	r0, sp, #40
 641 0054 FFF7FEFF 		bl	hci_send_req
 642              	.LVL27:
 643              		.loc 1 180 6 view .LVU200
 644 0058 0028     		cmp	r0, #0
 645 005a 03DB     		blt	.L26
 181:Middlewares/ST/BlueNRG-MS/hci/hci_le.c ****     return BLE_STATUS_TIMEOUT;
 182:Middlewares/ST/BlueNRG-MS/hci/hci_le.c ****   
 183:Middlewares/ST/BlueNRG-MS/hci/hci_le.c ****   return status;
 646              		.loc 1 183 3 is_stmt 1 view .LVU201
 647              		.loc 1 183 10 is_stmt 0 view .LVU202
 648 005c 9DF80700 		ldrb	r0, [sp, #7]	@ zero_extendqisi2
 649              	.L24:
 184:Middlewares/ST/BlueNRG-MS/hci/hci_le.c **** }
 650              		.loc 1 184 1 view .LVU203
 651 0060 11B0     		add	sp, sp, #68
 652              	.LCFI22:
 653              		.cfi_remember_state
 654              		.cfi_def_cfa_offset 20
 655              		@ sp needed
 656 0062 F0BD     		pop	{r4, r5, r6, r7, pc}
 657              	.LVL28:
 658              	.L26:
 659              	.LCFI23:
 660              		.cfi_restore_state
 181:Middlewares/ST/BlueNRG-MS/hci/hci_le.c ****     return BLE_STATUS_TIMEOUT;
 661              		.loc 1 181 12 view .LVU204
 662 0064 FF20     		movs	r0, #255
 663 0066 FBE7     		b	.L24
 664              		.cfi_endproc
 665              	.LFE297:
 667              		.section	.text.hci_le_set_advertise_enable,"ax",%progbits
 668              		.align	1
 669              		.global	hci_le_set_advertise_enable
 670              		.syntax unified
 671              		.thumb
 672              		.thumb_func
 674              	hci_le_set_advertise_enable:
 675              	.LVL29:
 676              	.LFB298:
 185:Middlewares/ST/BlueNRG-MS/hci/hci_le.c **** 
 186:Middlewares/ST/BlueNRG-MS/hci/hci_le.c **** int hci_le_set_advertise_enable(uint8_t enable)
ARM GAS  /tmp/cc11VlkJ.s 			page 16


 187:Middlewares/ST/BlueNRG-MS/hci/hci_le.c **** {
 677              		.loc 1 187 1 is_stmt 1 view -0
 678              		.cfi_startproc
 679              		@ args = 0, pretend = 0, frame = 32
 680              		@ frame_needed = 0, uses_anonymous_args = 0
 681              		.loc 1 187 1 is_stmt 0 view .LVU206
 682 0000 00B5     		push	{lr}
 683              	.LCFI24:
 684              		.cfi_def_cfa_offset 4
 685              		.cfi_offset 14, -4
 686 0002 89B0     		sub	sp, sp, #36
 687              	.LCFI25:
 688              		.cfi_def_cfa_offset 40
 188:Middlewares/ST/BlueNRG-MS/hci/hci_le.c ****   struct hci_request rq;
 689              		.loc 1 188 3 is_stmt 1 view .LVU207
 189:Middlewares/ST/BlueNRG-MS/hci/hci_le.c ****   le_set_advertise_enable_cp adv_cp;
 690              		.loc 1 189 3 view .LVU208
 190:Middlewares/ST/BlueNRG-MS/hci/hci_le.c ****   uint8_t status;
 691              		.loc 1 190 3 view .LVU209
 191:Middlewares/ST/BlueNRG-MS/hci/hci_le.c ****   
 192:Middlewares/ST/BlueNRG-MS/hci/hci_le.c ****   BLUENRG_memset(&adv_cp, 0, sizeof(adv_cp));
 692              		.loc 1 192 3 view .LVU210
 693 0004 0021     		movs	r1, #0
 694 0006 8DF80410 		strb	r1, [sp, #4]
 193:Middlewares/ST/BlueNRG-MS/hci/hci_le.c ****   adv_cp.enable = enable?1:0;
 695              		.loc 1 193 3 view .LVU211
 696              		.loc 1 193 27 is_stmt 0 view .LVU212
 697 000a 401A     		subs	r0, r0, r1
 698              	.LVL30:
 699              		.loc 1 193 27 view .LVU213
 700 000c 18BF     		it	ne
 701 000e 0120     		movne	r0, #1
 702              		.loc 1 193 17 view .LVU214
 703 0010 8DF80400 		strb	r0, [sp, #4]
 194:Middlewares/ST/BlueNRG-MS/hci/hci_le.c ****   
 195:Middlewares/ST/BlueNRG-MS/hci/hci_le.c ****   BLUENRG_memset(&rq, 0, sizeof(rq));
 704              		.loc 1 195 3 is_stmt 1 view .LVU215
 705 0014 0291     		str	r1, [sp, #8]
 706 0016 0391     		str	r1, [sp, #12]
 707 0018 0491     		str	r1, [sp, #16]
 708 001a 0591     		str	r1, [sp, #20]
 709 001c 0691     		str	r1, [sp, #24]
 710 001e 0791     		str	r1, [sp, #28]
 196:Middlewares/ST/BlueNRG-MS/hci/hci_le.c ****   rq.ogf = OGF_LE_CTL;
 711              		.loc 1 196 3 view .LVU216
 712              		.loc 1 196 10 is_stmt 0 view .LVU217
 713 0020 0823     		movs	r3, #8
 714 0022 ADF80830 		strh	r3, [sp, #8]	@ movhi
 197:Middlewares/ST/BlueNRG-MS/hci/hci_le.c ****   rq.ocf = OCF_LE_SET_ADVERTISE_ENABLE;
 715              		.loc 1 197 3 is_stmt 1 view .LVU218
 716              		.loc 1 197 10 is_stmt 0 view .LVU219
 717 0026 0A23     		movs	r3, #10
 718 0028 ADF80A30 		strh	r3, [sp, #10]	@ movhi
 198:Middlewares/ST/BlueNRG-MS/hci/hci_le.c ****   rq.cparam = &adv_cp;
 719              		.loc 1 198 3 is_stmt 1 view .LVU220
 720              		.loc 1 198 13 is_stmt 0 view .LVU221
 721 002c 01AB     		add	r3, sp, #4
ARM GAS  /tmp/cc11VlkJ.s 			page 17


 722 002e 0493     		str	r3, [sp, #16]
 199:Middlewares/ST/BlueNRG-MS/hci/hci_le.c ****   rq.clen = LE_SET_ADVERTISE_ENABLE_CP_SIZE;
 723              		.loc 1 199 3 is_stmt 1 view .LVU222
 724              		.loc 1 199 11 is_stmt 0 view .LVU223
 725 0030 0123     		movs	r3, #1
 726 0032 0593     		str	r3, [sp, #20]
 200:Middlewares/ST/BlueNRG-MS/hci/hci_le.c ****   rq.rparam = &status;
 727              		.loc 1 200 3 is_stmt 1 view .LVU224
 728              		.loc 1 200 13 is_stmt 0 view .LVU225
 729 0034 0DF10302 		add	r2, sp, #3
 730 0038 0692     		str	r2, [sp, #24]
 201:Middlewares/ST/BlueNRG-MS/hci/hci_le.c ****   rq.rlen = 1;
 731              		.loc 1 201 3 is_stmt 1 view .LVU226
 732              		.loc 1 201 11 is_stmt 0 view .LVU227
 733 003a 0793     		str	r3, [sp, #28]
 202:Middlewares/ST/BlueNRG-MS/hci/hci_le.c ****   
 203:Middlewares/ST/BlueNRG-MS/hci/hci_le.c ****   if (hci_send_req(&rq, FALSE) < 0)
 734              		.loc 1 203 3 is_stmt 1 view .LVU228
 735              		.loc 1 203 7 is_stmt 0 view .LVU229
 736 003c 02A8     		add	r0, sp, #8
 737 003e FFF7FEFF 		bl	hci_send_req
 738              	.LVL31:
 739              		.loc 1 203 6 view .LVU230
 740 0042 0028     		cmp	r0, #0
 741 0044 04DB     		blt	.L30
 204:Middlewares/ST/BlueNRG-MS/hci/hci_le.c ****     return BLE_STATUS_TIMEOUT;
 205:Middlewares/ST/BlueNRG-MS/hci/hci_le.c ****   
 206:Middlewares/ST/BlueNRG-MS/hci/hci_le.c ****   return status;
 742              		.loc 1 206 3 is_stmt 1 view .LVU231
 743              		.loc 1 206 10 is_stmt 0 view .LVU232
 744 0046 9DF80300 		ldrb	r0, [sp, #3]	@ zero_extendqisi2
 745              	.L28:
 207:Middlewares/ST/BlueNRG-MS/hci/hci_le.c **** }
 746              		.loc 1 207 1 view .LVU233
 747 004a 09B0     		add	sp, sp, #36
 748              	.LCFI26:
 749              		.cfi_remember_state
 750              		.cfi_def_cfa_offset 4
 751              		@ sp needed
 752 004c 5DF804FB 		ldr	pc, [sp], #4
 753              	.L30:
 754              	.LCFI27:
 755              		.cfi_restore_state
 204:Middlewares/ST/BlueNRG-MS/hci/hci_le.c ****     return BLE_STATUS_TIMEOUT;
 756              		.loc 1 204 12 view .LVU234
 757 0050 FF20     		movs	r0, #255
 758 0052 FAE7     		b	.L28
 759              		.cfi_endproc
 760              	.LFE298:
 762              		.section	.text.hci_le_set_scan_parameters,"ax",%progbits
 763              		.align	1
 764              		.global	hci_le_set_scan_parameters
 765              		.syntax unified
 766              		.thumb
 767              		.thumb_func
 769              	hci_le_set_scan_parameters:
 770              	.LVL32:
ARM GAS  /tmp/cc11VlkJ.s 			page 18


 771              	.LFB299:
 208:Middlewares/ST/BlueNRG-MS/hci/hci_le.c **** 
 209:Middlewares/ST/BlueNRG-MS/hci/hci_le.c **** int hci_le_set_scan_parameters(uint8_t	type, uint16_t interval,
 210:Middlewares/ST/BlueNRG-MS/hci/hci_le.c ****                                uint16_t window, uint8_t own_bdaddr_type,
 211:Middlewares/ST/BlueNRG-MS/hci/hci_le.c ****                                uint8_t	filter)
 212:Middlewares/ST/BlueNRG-MS/hci/hci_le.c **** {
 772              		.loc 1 212 1 is_stmt 1 view -0
 773              		.cfi_startproc
 774              		@ args = 4, pretend = 0, frame = 40
 775              		@ frame_needed = 0, uses_anonymous_args = 0
 776              		.loc 1 212 1 is_stmt 0 view .LVU236
 777 0000 00B5     		push	{lr}
 778              	.LCFI28:
 779              		.cfi_def_cfa_offset 4
 780              		.cfi_offset 14, -4
 781 0002 8BB0     		sub	sp, sp, #44
 782              	.LCFI29:
 783              		.cfi_def_cfa_offset 48
 784 0004 8C46     		mov	ip, r1
 213:Middlewares/ST/BlueNRG-MS/hci/hci_le.c ****   struct hci_request rq;
 785              		.loc 1 213 3 is_stmt 1 view .LVU237
 214:Middlewares/ST/BlueNRG-MS/hci/hci_le.c ****   le_set_scan_parameters_cp scan_cp;
 786              		.loc 1 214 3 view .LVU238
 215:Middlewares/ST/BlueNRG-MS/hci/hci_le.c ****   uint8_t status;
 787              		.loc 1 215 3 view .LVU239
 216:Middlewares/ST/BlueNRG-MS/hci/hci_le.c ****   
 217:Middlewares/ST/BlueNRG-MS/hci/hci_le.c ****   BLUENRG_memset(&scan_cp, 0, sizeof(scan_cp));
 788              		.loc 1 217 3 view .LVU240
 789 0006 0021     		movs	r1, #0
 790              	.LVL33:
 791              		.loc 1 217 3 is_stmt 0 view .LVU241
 792 0008 0291     		str	r1, [sp, #8]
 793 000a CDF80B10 		str	r1, [sp, #11]	@ unaligned
 218:Middlewares/ST/BlueNRG-MS/hci/hci_le.c ****   scan_cp.type = type;
 794              		.loc 1 218 3 is_stmt 1 view .LVU242
 795              		.loc 1 218 16 is_stmt 0 view .LVU243
 796 000e 8DF80800 		strb	r0, [sp, #8]
 219:Middlewares/ST/BlueNRG-MS/hci/hci_le.c ****   scan_cp.interval = interval;
 797              		.loc 1 219 3 is_stmt 1 view .LVU244
 798              		.loc 1 219 20 is_stmt 0 view .LVU245
 799 0012 ADF809C0 		strh	ip, [sp, #9]	@ unaligned
 220:Middlewares/ST/BlueNRG-MS/hci/hci_le.c ****   scan_cp.window = window;
 800              		.loc 1 220 3 is_stmt 1 view .LVU246
 801              		.loc 1 220 18 is_stmt 0 view .LVU247
 802 0016 ADF80B20 		strh	r2, [sp, #11]	@ unaligned
 221:Middlewares/ST/BlueNRG-MS/hci/hci_le.c ****   scan_cp.own_bdaddr_type = own_bdaddr_type;
 803              		.loc 1 221 3 is_stmt 1 view .LVU248
 804              		.loc 1 221 27 is_stmt 0 view .LVU249
 805 001a 8DF80D30 		strb	r3, [sp, #13]
 222:Middlewares/ST/BlueNRG-MS/hci/hci_le.c ****   scan_cp.filter = filter;
 806              		.loc 1 222 3 is_stmt 1 view .LVU250
 807              		.loc 1 222 18 is_stmt 0 view .LVU251
 808 001e 9DF83030 		ldrb	r3, [sp, #48]	@ zero_extendqisi2
 809              	.LVL34:
 810              		.loc 1 222 18 view .LVU252
 811 0022 8DF80E30 		strb	r3, [sp, #14]
 223:Middlewares/ST/BlueNRG-MS/hci/hci_le.c ****   
ARM GAS  /tmp/cc11VlkJ.s 			page 19


 224:Middlewares/ST/BlueNRG-MS/hci/hci_le.c ****   BLUENRG_memset(&rq, 0, sizeof(rq));
 812              		.loc 1 224 3 is_stmt 1 view .LVU253
 813 0026 0491     		str	r1, [sp, #16]
 814 0028 0591     		str	r1, [sp, #20]
 815 002a 0691     		str	r1, [sp, #24]
 816 002c 0791     		str	r1, [sp, #28]
 817 002e 0891     		str	r1, [sp, #32]
 818 0030 0991     		str	r1, [sp, #36]
 225:Middlewares/ST/BlueNRG-MS/hci/hci_le.c ****   rq.ogf = OGF_LE_CTL;
 819              		.loc 1 225 3 view .LVU254
 820              		.loc 1 225 10 is_stmt 0 view .LVU255
 821 0032 0823     		movs	r3, #8
 822 0034 ADF81030 		strh	r3, [sp, #16]	@ movhi
 226:Middlewares/ST/BlueNRG-MS/hci/hci_le.c ****   rq.ocf = OCF_LE_SET_SCAN_PARAMETERS;
 823              		.loc 1 226 3 is_stmt 1 view .LVU256
 824              		.loc 1 226 10 is_stmt 0 view .LVU257
 825 0038 0B23     		movs	r3, #11
 826 003a ADF81230 		strh	r3, [sp, #18]	@ movhi
 227:Middlewares/ST/BlueNRG-MS/hci/hci_le.c ****   rq.cparam = &scan_cp;
 827              		.loc 1 227 3 is_stmt 1 view .LVU258
 828              		.loc 1 227 13 is_stmt 0 view .LVU259
 829 003e 02AB     		add	r3, sp, #8
 830 0040 0693     		str	r3, [sp, #24]
 228:Middlewares/ST/BlueNRG-MS/hci/hci_le.c ****   rq.clen = LE_SET_SCAN_PARAMETERS_CP_SIZE;
 831              		.loc 1 228 3 is_stmt 1 view .LVU260
 832              		.loc 1 228 11 is_stmt 0 view .LVU261
 833 0042 0723     		movs	r3, #7
 834 0044 0793     		str	r3, [sp, #28]
 229:Middlewares/ST/BlueNRG-MS/hci/hci_le.c ****   rq.rparam = &status;
 835              		.loc 1 229 3 is_stmt 1 view .LVU262
 836              		.loc 1 229 13 is_stmt 0 view .LVU263
 837 0046 6B44     		add	r3, sp, r3
 838 0048 0893     		str	r3, [sp, #32]
 230:Middlewares/ST/BlueNRG-MS/hci/hci_le.c ****   rq.rlen = 1;
 839              		.loc 1 230 3 is_stmt 1 view .LVU264
 840              		.loc 1 230 11 is_stmt 0 view .LVU265
 841 004a 0123     		movs	r3, #1
 842 004c 0993     		str	r3, [sp, #36]
 231:Middlewares/ST/BlueNRG-MS/hci/hci_le.c ****   
 232:Middlewares/ST/BlueNRG-MS/hci/hci_le.c ****   if (hci_send_req(&rq, FALSE) < 0)
 843              		.loc 1 232 3 is_stmt 1 view .LVU266
 844              		.loc 1 232 7 is_stmt 0 view .LVU267
 845 004e 04A8     		add	r0, sp, #16
 846              	.LVL35:
 847              		.loc 1 232 7 view .LVU268
 848 0050 FFF7FEFF 		bl	hci_send_req
 849              	.LVL36:
 850              		.loc 1 232 6 view .LVU269
 851 0054 0028     		cmp	r0, #0
 852 0056 04DB     		blt	.L34
 233:Middlewares/ST/BlueNRG-MS/hci/hci_le.c ****     return BLE_STATUS_TIMEOUT;
 234:Middlewares/ST/BlueNRG-MS/hci/hci_le.c ****   
 235:Middlewares/ST/BlueNRG-MS/hci/hci_le.c ****   return status;
 853              		.loc 1 235 3 is_stmt 1 view .LVU270
 854              		.loc 1 235 10 is_stmt 0 view .LVU271
 855 0058 9DF80700 		ldrb	r0, [sp, #7]	@ zero_extendqisi2
 856              	.L32:
ARM GAS  /tmp/cc11VlkJ.s 			page 20


 236:Middlewares/ST/BlueNRG-MS/hci/hci_le.c **** }
 857              		.loc 1 236 1 view .LVU272
 858 005c 0BB0     		add	sp, sp, #44
 859              	.LCFI30:
 860              		.cfi_remember_state
 861              		.cfi_def_cfa_offset 4
 862              		@ sp needed
 863 005e 5DF804FB 		ldr	pc, [sp], #4
 864              	.LVL37:
 865              	.L34:
 866              	.LCFI31:
 867              		.cfi_restore_state
 233:Middlewares/ST/BlueNRG-MS/hci/hci_le.c ****     return BLE_STATUS_TIMEOUT;
 868              		.loc 1 233 12 view .LVU273
 869 0062 FF20     		movs	r0, #255
 870 0064 FAE7     		b	.L32
 871              		.cfi_endproc
 872              	.LFE299:
 874              		.section	.text.hci_le_set_scan_enable,"ax",%progbits
 875              		.align	1
 876              		.global	hci_le_set_scan_enable
 877              		.syntax unified
 878              		.thumb
 879              		.thumb_func
 881              	hci_le_set_scan_enable:
 882              	.LVL38:
 883              	.LFB300:
 237:Middlewares/ST/BlueNRG-MS/hci/hci_le.c **** 
 238:Middlewares/ST/BlueNRG-MS/hci/hci_le.c **** int hci_le_set_scan_enable(uint8_t enable, uint8_t filter_dup)
 239:Middlewares/ST/BlueNRG-MS/hci/hci_le.c **** {
 884              		.loc 1 239 1 is_stmt 1 view -0
 885              		.cfi_startproc
 886              		@ args = 0, pretend = 0, frame = 32
 887              		@ frame_needed = 0, uses_anonymous_args = 0
 888              		.loc 1 239 1 is_stmt 0 view .LVU275
 889 0000 00B5     		push	{lr}
 890              	.LCFI32:
 891              		.cfi_def_cfa_offset 4
 892              		.cfi_offset 14, -4
 893 0002 89B0     		sub	sp, sp, #36
 894              	.LCFI33:
 895              		.cfi_def_cfa_offset 40
 240:Middlewares/ST/BlueNRG-MS/hci/hci_le.c ****   struct hci_request rq;
 896              		.loc 1 240 3 is_stmt 1 view .LVU276
 241:Middlewares/ST/BlueNRG-MS/hci/hci_le.c ****   le_set_scan_enable_cp scan_cp;
 897              		.loc 1 241 3 view .LVU277
 242:Middlewares/ST/BlueNRG-MS/hci/hci_le.c ****   uint8_t status;
 898              		.loc 1 242 3 view .LVU278
 243:Middlewares/ST/BlueNRG-MS/hci/hci_le.c ****   
 244:Middlewares/ST/BlueNRG-MS/hci/hci_le.c ****   BLUENRG_memset(&scan_cp, 0, sizeof(scan_cp));
 899              		.loc 1 244 3 view .LVU279
 900 0004 0023     		movs	r3, #0
 901 0006 ADF80430 		strh	r3, [sp, #4]	@ movhi
 245:Middlewares/ST/BlueNRG-MS/hci/hci_le.c ****   scan_cp.enable = enable?1:0;
 902              		.loc 1 245 3 view .LVU280
 903              		.loc 1 245 28 is_stmt 0 view .LVU281
 904 000a C01A     		subs	r0, r0, r3
ARM GAS  /tmp/cc11VlkJ.s 			page 21


 905              	.LVL39:
 906              		.loc 1 245 28 view .LVU282
 907 000c 18BF     		it	ne
 908 000e 0120     		movne	r0, #1
 909              		.loc 1 245 18 view .LVU283
 910 0010 8DF80400 		strb	r0, [sp, #4]
 246:Middlewares/ST/BlueNRG-MS/hci/hci_le.c ****   scan_cp.filter_dup = filter_dup;
 911              		.loc 1 246 3 is_stmt 1 view .LVU284
 912              		.loc 1 246 22 is_stmt 0 view .LVU285
 913 0014 8DF80510 		strb	r1, [sp, #5]
 247:Middlewares/ST/BlueNRG-MS/hci/hci_le.c ****   
 248:Middlewares/ST/BlueNRG-MS/hci/hci_le.c ****   BLUENRG_memset(&rq, 0, sizeof(rq));
 914              		.loc 1 248 3 is_stmt 1 view .LVU286
 915 0018 0293     		str	r3, [sp, #8]
 916 001a 0393     		str	r3, [sp, #12]
 917 001c 0493     		str	r3, [sp, #16]
 918 001e 0593     		str	r3, [sp, #20]
 919 0020 0693     		str	r3, [sp, #24]
 920 0022 0793     		str	r3, [sp, #28]
 249:Middlewares/ST/BlueNRG-MS/hci/hci_le.c ****   rq.ogf = OGF_LE_CTL;
 921              		.loc 1 249 3 view .LVU287
 922              		.loc 1 249 10 is_stmt 0 view .LVU288
 923 0024 0822     		movs	r2, #8
 924 0026 ADF80820 		strh	r2, [sp, #8]	@ movhi
 250:Middlewares/ST/BlueNRG-MS/hci/hci_le.c ****   rq.ocf = OCF_LE_SET_SCAN_ENABLE;
 925              		.loc 1 250 3 is_stmt 1 view .LVU289
 926              		.loc 1 250 10 is_stmt 0 view .LVU290
 927 002a 0C22     		movs	r2, #12
 928 002c ADF80A20 		strh	r2, [sp, #10]	@ movhi
 251:Middlewares/ST/BlueNRG-MS/hci/hci_le.c ****   rq.cparam = &scan_cp;
 929              		.loc 1 251 3 is_stmt 1 view .LVU291
 930              		.loc 1 251 13 is_stmt 0 view .LVU292
 931 0030 01AA     		add	r2, sp, #4
 932 0032 0492     		str	r2, [sp, #16]
 252:Middlewares/ST/BlueNRG-MS/hci/hci_le.c ****   rq.clen = LE_SET_SCAN_ENABLE_CP_SIZE;
 933              		.loc 1 252 3 is_stmt 1 view .LVU293
 934              		.loc 1 252 11 is_stmt 0 view .LVU294
 935 0034 0222     		movs	r2, #2
 936 0036 0592     		str	r2, [sp, #20]
 253:Middlewares/ST/BlueNRG-MS/hci/hci_le.c ****   rq.rparam = &status;
 937              		.loc 1 253 3 is_stmt 1 view .LVU295
 938              		.loc 1 253 13 is_stmt 0 view .LVU296
 939 0038 0DF10302 		add	r2, sp, #3
 940 003c 0692     		str	r2, [sp, #24]
 254:Middlewares/ST/BlueNRG-MS/hci/hci_le.c ****   rq.rlen = 1;
 941              		.loc 1 254 3 is_stmt 1 view .LVU297
 942              		.loc 1 254 11 is_stmt 0 view .LVU298
 943 003e 0122     		movs	r2, #1
 944 0040 0792     		str	r2, [sp, #28]
 255:Middlewares/ST/BlueNRG-MS/hci/hci_le.c ****   
 256:Middlewares/ST/BlueNRG-MS/hci/hci_le.c ****   if (hci_send_req(&rq, FALSE) < 0)
 945              		.loc 1 256 3 is_stmt 1 view .LVU299
 946              		.loc 1 256 7 is_stmt 0 view .LVU300
 947 0042 1946     		mov	r1, r3
 948              	.LVL40:
 949              		.loc 1 256 7 view .LVU301
 950 0044 02A8     		add	r0, sp, #8
ARM GAS  /tmp/cc11VlkJ.s 			page 22


 951 0046 FFF7FEFF 		bl	hci_send_req
 952              	.LVL41:
 953              		.loc 1 256 6 view .LVU302
 954 004a 0028     		cmp	r0, #0
 955 004c 04DB     		blt	.L38
 257:Middlewares/ST/BlueNRG-MS/hci/hci_le.c ****     return BLE_STATUS_TIMEOUT;
 258:Middlewares/ST/BlueNRG-MS/hci/hci_le.c ****   
 259:Middlewares/ST/BlueNRG-MS/hci/hci_le.c ****   return status;
 956              		.loc 1 259 3 is_stmt 1 view .LVU303
 957              		.loc 1 259 10 is_stmt 0 view .LVU304
 958 004e 9DF80300 		ldrb	r0, [sp, #3]	@ zero_extendqisi2
 959              	.L36:
 260:Middlewares/ST/BlueNRG-MS/hci/hci_le.c **** }
 960              		.loc 1 260 1 view .LVU305
 961 0052 09B0     		add	sp, sp, #36
 962              	.LCFI34:
 963              		.cfi_remember_state
 964              		.cfi_def_cfa_offset 4
 965              		@ sp needed
 966 0054 5DF804FB 		ldr	pc, [sp], #4
 967              	.L38:
 968              	.LCFI35:
 969              		.cfi_restore_state
 257:Middlewares/ST/BlueNRG-MS/hci/hci_le.c ****     return BLE_STATUS_TIMEOUT;
 970              		.loc 1 257 12 view .LVU306
 971 0058 FF20     		movs	r0, #255
 972 005a FAE7     		b	.L36
 973              		.cfi_endproc
 974              	.LFE300:
 976              		.section	.text.hci_le_rand,"ax",%progbits
 977              		.align	1
 978              		.global	hci_le_rand
 979              		.syntax unified
 980              		.thumb
 981              		.thumb_func
 983              	hci_le_rand:
 984              	.LVL42:
 985              	.LFB301:
 261:Middlewares/ST/BlueNRG-MS/hci/hci_le.c **** 
 262:Middlewares/ST/BlueNRG-MS/hci/hci_le.c **** int hci_le_rand(uint8_t random_number[8])
 263:Middlewares/ST/BlueNRG-MS/hci/hci_le.c **** {
 986              		.loc 1 263 1 is_stmt 1 view -0
 987              		.cfi_startproc
 988              		@ args = 0, pretend = 0, frame = 40
 989              		@ frame_needed = 0, uses_anonymous_args = 0
 990              		.loc 1 263 1 is_stmt 0 view .LVU308
 991 0000 10B5     		push	{r4, lr}
 992              	.LCFI36:
 993              		.cfi_def_cfa_offset 8
 994              		.cfi_offset 4, -8
 995              		.cfi_offset 14, -4
 996 0002 8AB0     		sub	sp, sp, #40
 997              	.LCFI37:
 998              		.cfi_def_cfa_offset 48
 999 0004 0446     		mov	r4, r0
 264:Middlewares/ST/BlueNRG-MS/hci/hci_le.c ****   struct hci_request rq;
 1000              		.loc 1 264 3 is_stmt 1 view .LVU309
ARM GAS  /tmp/cc11VlkJ.s 			page 23


 265:Middlewares/ST/BlueNRG-MS/hci/hci_le.c ****   le_rand_rp resp;
 1001              		.loc 1 265 3 view .LVU310
 266:Middlewares/ST/BlueNRG-MS/hci/hci_le.c ****   
 267:Middlewares/ST/BlueNRG-MS/hci/hci_le.c ****   BLUENRG_memset(&resp, 0, sizeof(resp));
 1002              		.loc 1 267 3 view .LVU311
 1003 0006 01AB     		add	r3, sp, #4
 1004 0008 0021     		movs	r1, #0
 1005 000a 0191     		str	r1, [sp, #4]
 1006 000c 0291     		str	r1, [sp, #8]
 1007 000e 8DF80C10 		strb	r1, [sp, #12]
 268:Middlewares/ST/BlueNRG-MS/hci/hci_le.c ****   
 269:Middlewares/ST/BlueNRG-MS/hci/hci_le.c ****   BLUENRG_memset(&rq, 0, sizeof(rq));
 1008              		.loc 1 269 3 view .LVU312
 1009 0012 0491     		str	r1, [sp, #16]
 1010 0014 0591     		str	r1, [sp, #20]
 1011 0016 0691     		str	r1, [sp, #24]
 1012 0018 0791     		str	r1, [sp, #28]
 1013 001a 0891     		str	r1, [sp, #32]
 1014 001c 0991     		str	r1, [sp, #36]
 270:Middlewares/ST/BlueNRG-MS/hci/hci_le.c ****   rq.ogf = OGF_LE_CTL;
 1015              		.loc 1 270 3 view .LVU313
 1016              		.loc 1 270 10 is_stmt 0 view .LVU314
 1017 001e 0822     		movs	r2, #8
 1018 0020 ADF81020 		strh	r2, [sp, #16]	@ movhi
 271:Middlewares/ST/BlueNRG-MS/hci/hci_le.c ****   rq.ocf = OCF_LE_RAND;
 1019              		.loc 1 271 3 is_stmt 1 view .LVU315
 1020              		.loc 1 271 10 is_stmt 0 view .LVU316
 1021 0024 1822     		movs	r2, #24
 1022 0026 ADF81220 		strh	r2, [sp, #18]	@ movhi
 272:Middlewares/ST/BlueNRG-MS/hci/hci_le.c ****   rq.cparam = NULL;
 1023              		.loc 1 272 3 is_stmt 1 view .LVU317
 273:Middlewares/ST/BlueNRG-MS/hci/hci_le.c ****   rq.clen = 0;
 1024              		.loc 1 273 3 view .LVU318
 274:Middlewares/ST/BlueNRG-MS/hci/hci_le.c ****   rq.rparam = &resp;
 1025              		.loc 1 274 3 view .LVU319
 1026              		.loc 1 274 13 is_stmt 0 view .LVU320
 1027 002a 0893     		str	r3, [sp, #32]
 275:Middlewares/ST/BlueNRG-MS/hci/hci_le.c ****   rq.rlen = LE_RAND_RP_SIZE;
 1028              		.loc 1 275 3 is_stmt 1 view .LVU321
 1029              		.loc 1 275 11 is_stmt 0 view .LVU322
 1030 002c 0923     		movs	r3, #9
 1031 002e 0993     		str	r3, [sp, #36]
 276:Middlewares/ST/BlueNRG-MS/hci/hci_le.c ****   
 277:Middlewares/ST/BlueNRG-MS/hci/hci_le.c ****   if (hci_send_req(&rq, FALSE) < 0)
 1032              		.loc 1 277 3 is_stmt 1 view .LVU323
 1033              		.loc 1 277 7 is_stmt 0 view .LVU324
 1034 0030 04A8     		add	r0, sp, #16
 1035              	.LVL43:
 1036              		.loc 1 277 7 view .LVU325
 1037 0032 FFF7FEFF 		bl	hci_send_req
 1038              	.LVL44:
 1039              		.loc 1 277 6 view .LVU326
 1040 0036 0028     		cmp	r0, #0
 1041 0038 0ADB     		blt	.L43
 278:Middlewares/ST/BlueNRG-MS/hci/hci_le.c ****     return BLE_STATUS_TIMEOUT;
 279:Middlewares/ST/BlueNRG-MS/hci/hci_le.c ****   
 280:Middlewares/ST/BlueNRG-MS/hci/hci_le.c ****   if (resp.status) {
ARM GAS  /tmp/cc11VlkJ.s 			page 24


 1042              		.loc 1 280 3 is_stmt 1 view .LVU327
 1043              		.loc 1 280 11 is_stmt 0 view .LVU328
 1044 003a 9DF80400 		ldrb	r0, [sp, #4]	@ zero_extendqisi2
 1045              		.loc 1 280 6 view .LVU329
 1046 003e 28B9     		cbnz	r0, .L40
 281:Middlewares/ST/BlueNRG-MS/hci/hci_le.c ****     return resp.status;
 282:Middlewares/ST/BlueNRG-MS/hci/hci_le.c ****   }
 283:Middlewares/ST/BlueNRG-MS/hci/hci_le.c ****   
 284:Middlewares/ST/BlueNRG-MS/hci/hci_le.c ****   BLUENRG_memcpy(random_number, resp.random, 8);
 1047              		.loc 1 284 3 is_stmt 1 view .LVU330
 1048 0040 DDF80520 		ldr	r2, [sp, #5]	@ unaligned
 1049 0044 DDF80930 		ldr	r3, [sp, #9]	@ unaligned
 1050 0048 2260     		str	r2, [r4]	@ unaligned
 1051 004a 6360     		str	r3, [r4, #4]	@ unaligned
 285:Middlewares/ST/BlueNRG-MS/hci/hci_le.c ****   
 286:Middlewares/ST/BlueNRG-MS/hci/hci_le.c ****   return 0;
 1052              		.loc 1 286 3 view .LVU331
 1053              	.L40:
 287:Middlewares/ST/BlueNRG-MS/hci/hci_le.c **** }
 1054              		.loc 1 287 1 is_stmt 0 view .LVU332
 1055 004c 0AB0     		add	sp, sp, #40
 1056              	.LCFI38:
 1057              		.cfi_remember_state
 1058              		.cfi_def_cfa_offset 8
 1059              		@ sp needed
 1060 004e 10BD     		pop	{r4, pc}
 1061              	.LVL45:
 1062              	.L43:
 1063              	.LCFI39:
 1064              		.cfi_restore_state
 278:Middlewares/ST/BlueNRG-MS/hci/hci_le.c ****   
 1065              		.loc 1 278 12 view .LVU333
 1066 0050 FF20     		movs	r0, #255
 1067 0052 FBE7     		b	.L40
 1068              		.cfi_endproc
 1069              	.LFE301:
 1071              		.section	.text.hci_le_set_scan_resp_data,"ax",%progbits
 1072              		.align	1
 1073              		.global	hci_le_set_scan_resp_data
 1074              		.syntax unified
 1075              		.thumb
 1076              		.thumb_func
 1078              	hci_le_set_scan_resp_data:
 1079              	.LVL46:
 1080              	.LFB302:
 288:Middlewares/ST/BlueNRG-MS/hci/hci_le.c **** 
 289:Middlewares/ST/BlueNRG-MS/hci/hci_le.c **** int hci_le_set_scan_resp_data(uint8_t length, const uint8_t data[])
 290:Middlewares/ST/BlueNRG-MS/hci/hci_le.c **** {
 1081              		.loc 1 290 1 is_stmt 1 view -0
 1082              		.cfi_startproc
 1083              		@ args = 0, pretend = 0, frame = 64
 1084              		@ frame_needed = 0, uses_anonymous_args = 0
 1085              		.loc 1 290 1 is_stmt 0 view .LVU335
 1086 0000 F0B5     		push	{r4, r5, r6, r7, lr}
 1087              	.LCFI40:
 1088              		.cfi_def_cfa_offset 20
 1089              		.cfi_offset 4, -20
ARM GAS  /tmp/cc11VlkJ.s 			page 25


 1090              		.cfi_offset 5, -16
 1091              		.cfi_offset 6, -12
 1092              		.cfi_offset 7, -8
 1093              		.cfi_offset 14, -4
 1094 0002 91B0     		sub	sp, sp, #68
 1095              	.LCFI41:
 1096              		.cfi_def_cfa_offset 88
 1097 0004 0446     		mov	r4, r0
 1098 0006 0D46     		mov	r5, r1
 291:Middlewares/ST/BlueNRG-MS/hci/hci_le.c ****   struct hci_request rq;
 1099              		.loc 1 291 3 is_stmt 1 view .LVU336
 292:Middlewares/ST/BlueNRG-MS/hci/hci_le.c ****   le_set_scan_response_data_cp scan_resp_cp;
 1100              		.loc 1 292 3 view .LVU337
 293:Middlewares/ST/BlueNRG-MS/hci/hci_le.c ****   uint8_t status;
 1101              		.loc 1 293 3 view .LVU338
 294:Middlewares/ST/BlueNRG-MS/hci/hci_le.c ****   
 295:Middlewares/ST/BlueNRG-MS/hci/hci_le.c ****   BLUENRG_memset(&scan_resp_cp, 0, sizeof(scan_resp_cp));
 1102              		.loc 1 295 3 view .LVU339
 1103 0008 02AF     		add	r7, sp, #8
 1104 000a 2026     		movs	r6, #32
 1105 000c 3246     		mov	r2, r6
 1106 000e 0021     		movs	r1, #0
 1107              	.LVL47:
 1108              		.loc 1 295 3 is_stmt 0 view .LVU340
 1109 0010 3846     		mov	r0, r7
 1110              	.LVL48:
 1111              		.loc 1 295 3 view .LVU341
 1112 0012 FFF7FEFF 		bl	memset
 1113              	.LVL49:
 296:Middlewares/ST/BlueNRG-MS/hci/hci_le.c ****   scan_resp_cp.length = length;
 1114              		.loc 1 296 3 is_stmt 1 view .LVU342
 1115              		.loc 1 296 23 is_stmt 0 view .LVU343
 1116 0016 8DF80840 		strb	r4, [sp, #8]
 297:Middlewares/ST/BlueNRG-MS/hci/hci_le.c ****   BLUENRG_memcpy(scan_resp_cp.data, data, MIN(31,length));
 1117              		.loc 1 297 3 is_stmt 1 view .LVU344
 1118 001a 2246     		mov	r2, r4
 1119 001c 1F2C     		cmp	r4, #31
 1120 001e 28BF     		it	cs
 1121 0020 1F22     		movcs	r2, #31
 1122 0022 2946     		mov	r1, r5
 1123 0024 0DF10900 		add	r0, sp, #9
 1124 0028 FFF7FEFF 		bl	memcpy
 1125              	.LVL50:
 298:Middlewares/ST/BlueNRG-MS/hci/hci_le.c ****   
 299:Middlewares/ST/BlueNRG-MS/hci/hci_le.c ****   BLUENRG_memset(&rq, 0, sizeof(rq));
 1126              		.loc 1 299 3 view .LVU345
 1127 002c 0021     		movs	r1, #0
 1128 002e 0A91     		str	r1, [sp, #40]
 1129 0030 0B91     		str	r1, [sp, #44]
 1130 0032 0C91     		str	r1, [sp, #48]
 1131 0034 0D91     		str	r1, [sp, #52]
 1132 0036 0E91     		str	r1, [sp, #56]
 1133 0038 0F91     		str	r1, [sp, #60]
 300:Middlewares/ST/BlueNRG-MS/hci/hci_le.c ****   rq.ogf = OGF_LE_CTL;
 1134              		.loc 1 300 3 view .LVU346
 1135              		.loc 1 300 10 is_stmt 0 view .LVU347
 1136 003a 0823     		movs	r3, #8
ARM GAS  /tmp/cc11VlkJ.s 			page 26


 1137 003c ADF82830 		strh	r3, [sp, #40]	@ movhi
 301:Middlewares/ST/BlueNRG-MS/hci/hci_le.c ****   rq.ocf = OCF_LE_SET_SCAN_RESPONSE_DATA;
 1138              		.loc 1 301 3 is_stmt 1 view .LVU348
 1139              		.loc 1 301 10 is_stmt 0 view .LVU349
 1140 0040 0923     		movs	r3, #9
 1141 0042 ADF82A30 		strh	r3, [sp, #42]	@ movhi
 302:Middlewares/ST/BlueNRG-MS/hci/hci_le.c ****   rq.cparam = &scan_resp_cp;
 1142              		.loc 1 302 3 is_stmt 1 view .LVU350
 1143              		.loc 1 302 13 is_stmt 0 view .LVU351
 1144 0046 0C97     		str	r7, [sp, #48]
 303:Middlewares/ST/BlueNRG-MS/hci/hci_le.c ****   rq.clen = LE_SET_SCAN_RESPONSE_DATA_CP_SIZE;
 1145              		.loc 1 303 3 is_stmt 1 view .LVU352
 1146              		.loc 1 303 11 is_stmt 0 view .LVU353
 1147 0048 0D96     		str	r6, [sp, #52]
 304:Middlewares/ST/BlueNRG-MS/hci/hci_le.c ****   rq.rparam = &status;
 1148              		.loc 1 304 3 is_stmt 1 view .LVU354
 1149              		.loc 1 304 13 is_stmt 0 view .LVU355
 1150 004a 0DF10703 		add	r3, sp, #7
 1151 004e 0E93     		str	r3, [sp, #56]
 305:Middlewares/ST/BlueNRG-MS/hci/hci_le.c ****   rq.rlen = 1;
 1152              		.loc 1 305 3 is_stmt 1 view .LVU356
 1153              		.loc 1 305 11 is_stmt 0 view .LVU357
 1154 0050 0123     		movs	r3, #1
 1155 0052 0F93     		str	r3, [sp, #60]
 306:Middlewares/ST/BlueNRG-MS/hci/hci_le.c ****   
 307:Middlewares/ST/BlueNRG-MS/hci/hci_le.c ****   if (hci_send_req(&rq, FALSE) < 0)
 1156              		.loc 1 307 3 is_stmt 1 view .LVU358
 1157              		.loc 1 307 7 is_stmt 0 view .LVU359
 1158 0054 0AA8     		add	r0, sp, #40
 1159 0056 FFF7FEFF 		bl	hci_send_req
 1160              	.LVL51:
 1161              		.loc 1 307 6 view .LVU360
 1162 005a 0028     		cmp	r0, #0
 1163 005c 03DB     		blt	.L47
 308:Middlewares/ST/BlueNRG-MS/hci/hci_le.c ****     return BLE_STATUS_TIMEOUT;
 309:Middlewares/ST/BlueNRG-MS/hci/hci_le.c ****   
 310:Middlewares/ST/BlueNRG-MS/hci/hci_le.c ****   return status;
 1164              		.loc 1 310 3 is_stmt 1 view .LVU361
 1165              		.loc 1 310 10 is_stmt 0 view .LVU362
 1166 005e 9DF80700 		ldrb	r0, [sp, #7]	@ zero_extendqisi2
 1167              	.L45:
 311:Middlewares/ST/BlueNRG-MS/hci/hci_le.c **** }
 1168              		.loc 1 311 1 view .LVU363
 1169 0062 11B0     		add	sp, sp, #68
 1170              	.LCFI42:
 1171              		.cfi_remember_state
 1172              		.cfi_def_cfa_offset 20
 1173              		@ sp needed
 1174 0064 F0BD     		pop	{r4, r5, r6, r7, pc}
 1175              	.LVL52:
 1176              	.L47:
 1177              	.LCFI43:
 1178              		.cfi_restore_state
 308:Middlewares/ST/BlueNRG-MS/hci/hci_le.c ****     return BLE_STATUS_TIMEOUT;
 1179              		.loc 1 308 12 view .LVU364
 1180 0066 FF20     		movs	r0, #255
 1181 0068 FBE7     		b	.L45
ARM GAS  /tmp/cc11VlkJ.s 			page 27


 1182              		.cfi_endproc
 1183              	.LFE302:
 1185              		.section	.text.hci_le_read_advertising_channel_tx_power,"ax",%progbits
 1186              		.align	1
 1187              		.global	hci_le_read_advertising_channel_tx_power
 1188              		.syntax unified
 1189              		.thumb
 1190              		.thumb_func
 1192              	hci_le_read_advertising_channel_tx_power:
 1193              	.LVL53:
 1194              	.LFB303:
 312:Middlewares/ST/BlueNRG-MS/hci/hci_le.c **** 
 313:Middlewares/ST/BlueNRG-MS/hci/hci_le.c **** int hci_le_read_advertising_channel_tx_power(int8_t *tx_power_level)
 314:Middlewares/ST/BlueNRG-MS/hci/hci_le.c **** {
 1195              		.loc 1 314 1 is_stmt 1 view -0
 1196              		.cfi_startproc
 1197              		@ args = 0, pretend = 0, frame = 32
 1198              		@ frame_needed = 0, uses_anonymous_args = 0
 1199              		.loc 1 314 1 is_stmt 0 view .LVU366
 1200 0000 10B5     		push	{r4, lr}
 1201              	.LCFI44:
 1202              		.cfi_def_cfa_offset 8
 1203              		.cfi_offset 4, -8
 1204              		.cfi_offset 14, -4
 1205 0002 88B0     		sub	sp, sp, #32
 1206              	.LCFI45:
 1207              		.cfi_def_cfa_offset 40
 1208 0004 0446     		mov	r4, r0
 315:Middlewares/ST/BlueNRG-MS/hci/hci_le.c ****   struct hci_request rq;
 1209              		.loc 1 315 3 is_stmt 1 view .LVU367
 316:Middlewares/ST/BlueNRG-MS/hci/hci_le.c ****   le_read_adv_channel_tx_power_rp resp;
 1210              		.loc 1 316 3 view .LVU368
 317:Middlewares/ST/BlueNRG-MS/hci/hci_le.c ****   
 318:Middlewares/ST/BlueNRG-MS/hci/hci_le.c ****   BLUENRG_memset(&resp, 0, sizeof(resp));
 1211              		.loc 1 318 3 view .LVU369
 1212 0006 0021     		movs	r1, #0
 1213 0008 ADF80410 		strh	r1, [sp, #4]	@ movhi
 319:Middlewares/ST/BlueNRG-MS/hci/hci_le.c ****   
 320:Middlewares/ST/BlueNRG-MS/hci/hci_le.c ****   BLUENRG_memset(&rq, 0, sizeof(rq));
 1214              		.loc 1 320 3 view .LVU370
 1215 000c 0291     		str	r1, [sp, #8]
 1216 000e 0391     		str	r1, [sp, #12]
 1217 0010 0491     		str	r1, [sp, #16]
 1218 0012 0591     		str	r1, [sp, #20]
 1219 0014 0691     		str	r1, [sp, #24]
 1220 0016 0791     		str	r1, [sp, #28]
 321:Middlewares/ST/BlueNRG-MS/hci/hci_le.c ****   rq.ogf = OGF_LE_CTL;
 1221              		.loc 1 321 3 view .LVU371
 1222              		.loc 1 321 10 is_stmt 0 view .LVU372
 1223 0018 0823     		movs	r3, #8
 1224 001a ADF80830 		strh	r3, [sp, #8]	@ movhi
 322:Middlewares/ST/BlueNRG-MS/hci/hci_le.c ****   rq.ocf = OCF_LE_READ_ADV_CHANNEL_TX_POWER;
 1225              		.loc 1 322 3 is_stmt 1 view .LVU373
 1226              		.loc 1 322 10 is_stmt 0 view .LVU374
 1227 001e 0723     		movs	r3, #7
 1228 0020 ADF80A30 		strh	r3, [sp, #10]	@ movhi
 323:Middlewares/ST/BlueNRG-MS/hci/hci_le.c ****   rq.cparam = NULL;
ARM GAS  /tmp/cc11VlkJ.s 			page 28


 1229              		.loc 1 323 3 is_stmt 1 view .LVU375
 324:Middlewares/ST/BlueNRG-MS/hci/hci_le.c ****   rq.clen = 0;
 1230              		.loc 1 324 3 view .LVU376
 325:Middlewares/ST/BlueNRG-MS/hci/hci_le.c ****   rq.rparam = &resp;
 1231              		.loc 1 325 3 view .LVU377
 1232              		.loc 1 325 13 is_stmt 0 view .LVU378
 1233 0024 01AB     		add	r3, sp, #4
 1234 0026 0693     		str	r3, [sp, #24]
 326:Middlewares/ST/BlueNRG-MS/hci/hci_le.c ****   rq.rlen = LE_RAND_RP_SIZE;
 1235              		.loc 1 326 3 is_stmt 1 view .LVU379
 1236              		.loc 1 326 11 is_stmt 0 view .LVU380
 1237 0028 0923     		movs	r3, #9
 1238 002a 0793     		str	r3, [sp, #28]
 327:Middlewares/ST/BlueNRG-MS/hci/hci_le.c ****   
 328:Middlewares/ST/BlueNRG-MS/hci/hci_le.c ****   if (hci_send_req(&rq, FALSE) < 0)
 1239              		.loc 1 328 3 is_stmt 1 view .LVU381
 1240              		.loc 1 328 7 is_stmt 0 view .LVU382
 1241 002c 02A8     		add	r0, sp, #8
 1242              	.LVL54:
 1243              		.loc 1 328 7 view .LVU383
 1244 002e FFF7FEFF 		bl	hci_send_req
 1245              	.LVL55:
 1246              		.loc 1 328 6 view .LVU384
 1247 0032 0028     		cmp	r0, #0
 1248 0034 07DB     		blt	.L52
 329:Middlewares/ST/BlueNRG-MS/hci/hci_le.c ****     return BLE_STATUS_TIMEOUT;
 330:Middlewares/ST/BlueNRG-MS/hci/hci_le.c ****   
 331:Middlewares/ST/BlueNRG-MS/hci/hci_le.c ****   if (resp.status) {
 1249              		.loc 1 331 3 is_stmt 1 view .LVU385
 1250              		.loc 1 331 11 is_stmt 0 view .LVU386
 1251 0036 9DF80400 		ldrb	r0, [sp, #4]	@ zero_extendqisi2
 1252              		.loc 1 331 6 view .LVU387
 1253 003a 10B9     		cbnz	r0, .L49
 332:Middlewares/ST/BlueNRG-MS/hci/hci_le.c ****     return resp.status;
 333:Middlewares/ST/BlueNRG-MS/hci/hci_le.c ****   }
 334:Middlewares/ST/BlueNRG-MS/hci/hci_le.c ****   
 335:Middlewares/ST/BlueNRG-MS/hci/hci_le.c ****   *tx_power_level = resp.level;
 1254              		.loc 1 335 3 is_stmt 1 view .LVU388
 1255              		.loc 1 335 25 is_stmt 0 view .LVU389
 1256 003c 9DF90530 		ldrsb	r3, [sp, #5]
 1257              		.loc 1 335 19 view .LVU390
 1258 0040 2370     		strb	r3, [r4]
 336:Middlewares/ST/BlueNRG-MS/hci/hci_le.c ****   
 337:Middlewares/ST/BlueNRG-MS/hci/hci_le.c ****   return 0;
 1259              		.loc 1 337 3 is_stmt 1 view .LVU391
 1260              	.L49:
 338:Middlewares/ST/BlueNRG-MS/hci/hci_le.c **** }
 1261              		.loc 1 338 1 is_stmt 0 view .LVU392
 1262 0042 08B0     		add	sp, sp, #32
 1263              	.LCFI46:
 1264              		.cfi_remember_state
 1265              		.cfi_def_cfa_offset 8
 1266              		@ sp needed
 1267 0044 10BD     		pop	{r4, pc}
 1268              	.LVL56:
 1269              	.L52:
 1270              	.LCFI47:
ARM GAS  /tmp/cc11VlkJ.s 			page 29


 1271              		.cfi_restore_state
 329:Middlewares/ST/BlueNRG-MS/hci/hci_le.c ****   
 1272              		.loc 1 329 12 view .LVU393
 1273 0046 FF20     		movs	r0, #255
 1274 0048 FBE7     		b	.L49
 1275              		.cfi_endproc
 1276              	.LFE303:
 1278              		.section	.text.hci_le_set_random_address,"ax",%progbits
 1279              		.align	1
 1280              		.global	hci_le_set_random_address
 1281              		.syntax unified
 1282              		.thumb
 1283              		.thumb_func
 1285              	hci_le_set_random_address:
 1286              	.LVL57:
 1287              	.LFB304:
 339:Middlewares/ST/BlueNRG-MS/hci/hci_le.c **** 
 340:Middlewares/ST/BlueNRG-MS/hci/hci_le.c **** int hci_le_set_random_address(tBDAddr bdaddr)
 341:Middlewares/ST/BlueNRG-MS/hci/hci_le.c **** {
 1288              		.loc 1 341 1 is_stmt 1 view -0
 1289              		.cfi_startproc
 1290              		@ args = 0, pretend = 0, frame = 40
 1291              		@ frame_needed = 0, uses_anonymous_args = 0
 1292              		.loc 1 341 1 is_stmt 0 view .LVU395
 1293 0000 00B5     		push	{lr}
 1294              	.LCFI48:
 1295              		.cfi_def_cfa_offset 4
 1296              		.cfi_offset 14, -4
 1297 0002 8BB0     		sub	sp, sp, #44
 1298              	.LCFI49:
 1299              		.cfi_def_cfa_offset 48
 1300 0004 0346     		mov	r3, r0
 342:Middlewares/ST/BlueNRG-MS/hci/hci_le.c ****   struct hci_request rq;
 1301              		.loc 1 342 3 is_stmt 1 view .LVU396
 343:Middlewares/ST/BlueNRG-MS/hci/hci_le.c ****   le_set_random_address_cp set_rand_addr_cp;
 1302              		.loc 1 343 3 view .LVU397
 344:Middlewares/ST/BlueNRG-MS/hci/hci_le.c ****   uint8_t status;
 1303              		.loc 1 344 3 view .LVU398
 345:Middlewares/ST/BlueNRG-MS/hci/hci_le.c ****   
 346:Middlewares/ST/BlueNRG-MS/hci/hci_le.c ****   BLUENRG_memset(&set_rand_addr_cp, 0, sizeof(set_rand_addr_cp));
 1304              		.loc 1 346 3 view .LVU399
 1305 0006 02AA     		add	r2, sp, #8
 1306 0008 0021     		movs	r1, #0
 1307 000a 0291     		str	r1, [sp, #8]
 1308 000c ADF80C10 		strh	r1, [sp, #12]	@ movhi
 347:Middlewares/ST/BlueNRG-MS/hci/hci_le.c ****   BLUENRG_memcpy(set_rand_addr_cp.bdaddr, bdaddr, sizeof(tBDAddr));
 1309              		.loc 1 347 3 view .LVU400
 1310 0010 0068     		ldr	r0, [r0]	@ unaligned
 1311              	.LVL58:
 1312              		.loc 1 347 3 is_stmt 0 view .LVU401
 1313 0012 0290     		str	r0, [sp, #8]
 1314 0014 9B88     		ldrh	r3, [r3, #4]	@ unaligned
 1315              	.LVL59:
 1316              		.loc 1 347 3 view .LVU402
 1317 0016 ADF80C30 		strh	r3, [sp, #12]	@ unaligned
 348:Middlewares/ST/BlueNRG-MS/hci/hci_le.c ****   
 349:Middlewares/ST/BlueNRG-MS/hci/hci_le.c ****   BLUENRG_memset(&rq, 0, sizeof(rq));
ARM GAS  /tmp/cc11VlkJ.s 			page 30


 1318              		.loc 1 349 3 is_stmt 1 view .LVU403
 1319 001a 0491     		str	r1, [sp, #16]
 1320 001c 0591     		str	r1, [sp, #20]
 1321 001e 0691     		str	r1, [sp, #24]
 1322 0020 0791     		str	r1, [sp, #28]
 1323 0022 0891     		str	r1, [sp, #32]
 1324 0024 0991     		str	r1, [sp, #36]
 350:Middlewares/ST/BlueNRG-MS/hci/hci_le.c ****   rq.ogf = OGF_LE_CTL;
 1325              		.loc 1 350 3 view .LVU404
 1326              		.loc 1 350 10 is_stmt 0 view .LVU405
 1327 0026 0823     		movs	r3, #8
 1328 0028 ADF81030 		strh	r3, [sp, #16]	@ movhi
 351:Middlewares/ST/BlueNRG-MS/hci/hci_le.c ****   rq.ocf = OCF_LE_SET_RANDOM_ADDRESS;
 1329              		.loc 1 351 3 is_stmt 1 view .LVU406
 1330              		.loc 1 351 10 is_stmt 0 view .LVU407
 1331 002c 0523     		movs	r3, #5
 1332 002e ADF81230 		strh	r3, [sp, #18]	@ movhi
 352:Middlewares/ST/BlueNRG-MS/hci/hci_le.c ****   rq.cparam = &set_rand_addr_cp;
 1333              		.loc 1 352 3 is_stmt 1 view .LVU408
 1334              		.loc 1 352 13 is_stmt 0 view .LVU409
 1335 0032 0692     		str	r2, [sp, #24]
 353:Middlewares/ST/BlueNRG-MS/hci/hci_le.c ****   rq.clen = LE_SET_RANDOM_ADDRESS_CP_SIZE;
 1336              		.loc 1 353 3 is_stmt 1 view .LVU410
 1337              		.loc 1 353 11 is_stmt 0 view .LVU411
 1338 0034 0623     		movs	r3, #6
 1339 0036 0793     		str	r3, [sp, #28]
 354:Middlewares/ST/BlueNRG-MS/hci/hci_le.c ****   rq.rparam = &status;
 1340              		.loc 1 354 3 is_stmt 1 view .LVU412
 1341              		.loc 1 354 13 is_stmt 0 view .LVU413
 1342 0038 0DF10703 		add	r3, sp, #7
 1343 003c 0893     		str	r3, [sp, #32]
 355:Middlewares/ST/BlueNRG-MS/hci/hci_le.c ****   rq.rlen = 1;
 1344              		.loc 1 355 3 is_stmt 1 view .LVU414
 1345              		.loc 1 355 11 is_stmt 0 view .LVU415
 1346 003e 0123     		movs	r3, #1
 1347 0040 0993     		str	r3, [sp, #36]
 356:Middlewares/ST/BlueNRG-MS/hci/hci_le.c ****   
 357:Middlewares/ST/BlueNRG-MS/hci/hci_le.c ****   if (hci_send_req(&rq, FALSE) < 0)
 1348              		.loc 1 357 3 is_stmt 1 view .LVU416
 1349              		.loc 1 357 7 is_stmt 0 view .LVU417
 1350 0042 04A8     		add	r0, sp, #16
 1351 0044 FFF7FEFF 		bl	hci_send_req
 1352              	.LVL60:
 1353              		.loc 1 357 6 view .LVU418
 1354 0048 0028     		cmp	r0, #0
 1355 004a 04DB     		blt	.L56
 358:Middlewares/ST/BlueNRG-MS/hci/hci_le.c ****     return BLE_STATUS_TIMEOUT;
 359:Middlewares/ST/BlueNRG-MS/hci/hci_le.c ****   
 360:Middlewares/ST/BlueNRG-MS/hci/hci_le.c ****   return status;
 1356              		.loc 1 360 3 is_stmt 1 view .LVU419
 1357              		.loc 1 360 10 is_stmt 0 view .LVU420
 1358 004c 9DF80700 		ldrb	r0, [sp, #7]	@ zero_extendqisi2
 1359              	.L54:
 361:Middlewares/ST/BlueNRG-MS/hci/hci_le.c **** }
 1360              		.loc 1 361 1 view .LVU421
 1361 0050 0BB0     		add	sp, sp, #44
 1362              	.LCFI50:
ARM GAS  /tmp/cc11VlkJ.s 			page 31


 1363              		.cfi_remember_state
 1364              		.cfi_def_cfa_offset 4
 1365              		@ sp needed
 1366 0052 5DF804FB 		ldr	pc, [sp], #4
 1367              	.L56:
 1368              	.LCFI51:
 1369              		.cfi_restore_state
 358:Middlewares/ST/BlueNRG-MS/hci/hci_le.c ****     return BLE_STATUS_TIMEOUT;
 1370              		.loc 1 358 12 view .LVU422
 1371 0056 FF20     		movs	r0, #255
 1372 0058 FAE7     		b	.L54
 1373              		.cfi_endproc
 1374              	.LFE304:
 1376              		.section	.text.hci_read_bd_addr,"ax",%progbits
 1377              		.align	1
 1378              		.global	hci_read_bd_addr
 1379              		.syntax unified
 1380              		.thumb
 1381              		.thumb_func
 1383              	hci_read_bd_addr:
 1384              	.LVL61:
 1385              	.LFB305:
 362:Middlewares/ST/BlueNRG-MS/hci/hci_le.c **** 
 363:Middlewares/ST/BlueNRG-MS/hci/hci_le.c **** int hci_read_bd_addr(tBDAddr bdaddr)
 364:Middlewares/ST/BlueNRG-MS/hci/hci_le.c **** {
 1386              		.loc 1 364 1 is_stmt 1 view -0
 1387              		.cfi_startproc
 1388              		@ args = 0, pretend = 0, frame = 32
 1389              		@ frame_needed = 0, uses_anonymous_args = 0
 1390              		.loc 1 364 1 is_stmt 0 view .LVU424
 1391 0000 10B5     		push	{r4, lr}
 1392              	.LCFI52:
 1393              		.cfi_def_cfa_offset 8
 1394              		.cfi_offset 4, -8
 1395              		.cfi_offset 14, -4
 1396 0002 88B0     		sub	sp, sp, #32
 1397              	.LCFI53:
 1398              		.cfi_def_cfa_offset 40
 1399 0004 0446     		mov	r4, r0
 365:Middlewares/ST/BlueNRG-MS/hci/hci_le.c ****   struct hci_request rq;
 1400              		.loc 1 365 3 is_stmt 1 view .LVU425
 366:Middlewares/ST/BlueNRG-MS/hci/hci_le.c ****   read_bd_addr_rp resp;
 1401              		.loc 1 366 3 view .LVU426
 367:Middlewares/ST/BlueNRG-MS/hci/hci_le.c ****   
 368:Middlewares/ST/BlueNRG-MS/hci/hci_le.c ****   BLUENRG_memset(&resp, 0, sizeof(resp));
 1402              		.loc 1 368 3 view .LVU427
 1403 0006 0021     		movs	r1, #0
 1404 0008 0091     		str	r1, [sp]
 1405 000a CDF80310 		str	r1, [sp, #3]	@ unaligned
 369:Middlewares/ST/BlueNRG-MS/hci/hci_le.c ****   
 370:Middlewares/ST/BlueNRG-MS/hci/hci_le.c ****   BLUENRG_memset(&rq, 0, sizeof(rq));
 1406              		.loc 1 370 3 view .LVU428
 1407 000e 0291     		str	r1, [sp, #8]
 1408 0010 0391     		str	r1, [sp, #12]
 1409 0012 0491     		str	r1, [sp, #16]
 1410 0014 0591     		str	r1, [sp, #20]
 1411 0016 0691     		str	r1, [sp, #24]
ARM GAS  /tmp/cc11VlkJ.s 			page 32


 1412 0018 0791     		str	r1, [sp, #28]
 371:Middlewares/ST/BlueNRG-MS/hci/hci_le.c ****   rq.ogf = OGF_INFO_PARAM;
 1413              		.loc 1 371 3 view .LVU429
 1414              		.loc 1 371 10 is_stmt 0 view .LVU430
 1415 001a 0423     		movs	r3, #4
 1416 001c ADF80830 		strh	r3, [sp, #8]	@ movhi
 372:Middlewares/ST/BlueNRG-MS/hci/hci_le.c ****   rq.ocf = OCF_READ_BD_ADDR;
 1417              		.loc 1 372 3 is_stmt 1 view .LVU431
 1418              		.loc 1 372 10 is_stmt 0 view .LVU432
 1419 0020 0923     		movs	r3, #9
 1420 0022 ADF80A30 		strh	r3, [sp, #10]	@ movhi
 373:Middlewares/ST/BlueNRG-MS/hci/hci_le.c ****   rq.cparam = NULL;
 1421              		.loc 1 373 3 is_stmt 1 view .LVU433
 374:Middlewares/ST/BlueNRG-MS/hci/hci_le.c ****   rq.clen = 0;
 1422              		.loc 1 374 3 view .LVU434
 375:Middlewares/ST/BlueNRG-MS/hci/hci_le.c ****   rq.rparam = &resp;
 1423              		.loc 1 375 3 view .LVU435
 1424              		.loc 1 375 13 is_stmt 0 view .LVU436
 1425 0026 CDF818D0 		str	sp, [sp, #24]
 376:Middlewares/ST/BlueNRG-MS/hci/hci_le.c ****   rq.rlen = READ_BD_ADDR_RP_SIZE;
 1426              		.loc 1 376 3 is_stmt 1 view .LVU437
 1427              		.loc 1 376 11 is_stmt 0 view .LVU438
 1428 002a 0723     		movs	r3, #7
 1429 002c 0793     		str	r3, [sp, #28]
 377:Middlewares/ST/BlueNRG-MS/hci/hci_le.c ****   
 378:Middlewares/ST/BlueNRG-MS/hci/hci_le.c ****   if (hci_send_req(&rq, FALSE) < 0)
 1430              		.loc 1 378 3 is_stmt 1 view .LVU439
 1431              		.loc 1 378 7 is_stmt 0 view .LVU440
 1432 002e 02A8     		add	r0, sp, #8
 1433              	.LVL62:
 1434              		.loc 1 378 7 view .LVU441
 1435 0030 FFF7FEFF 		bl	hci_send_req
 1436              	.LVL63:
 1437              		.loc 1 378 6 view .LVU442
 1438 0034 0028     		cmp	r0, #0
 1439 0036 0ADB     		blt	.L61
 379:Middlewares/ST/BlueNRG-MS/hci/hci_le.c ****     return BLE_STATUS_TIMEOUT;
 380:Middlewares/ST/BlueNRG-MS/hci/hci_le.c ****   
 381:Middlewares/ST/BlueNRG-MS/hci/hci_le.c ****   if (resp.status) {
 1440              		.loc 1 381 3 is_stmt 1 view .LVU443
 1441              		.loc 1 381 11 is_stmt 0 view .LVU444
 1442 0038 9DF80000 		ldrb	r0, [sp]	@ zero_extendqisi2
 1443              		.loc 1 381 6 view .LVU445
 1444 003c 28B9     		cbnz	r0, .L58
 382:Middlewares/ST/BlueNRG-MS/hci/hci_le.c ****     return resp.status;
 383:Middlewares/ST/BlueNRG-MS/hci/hci_le.c ****   }
 384:Middlewares/ST/BlueNRG-MS/hci/hci_le.c ****   BLUENRG_memcpy(bdaddr, resp.bdaddr, sizeof(tBDAddr));
 1445              		.loc 1 384 3 is_stmt 1 view .LVU446
 1446 003e DDF80130 		ldr	r3, [sp, #1]	@ unaligned
 1447 0042 2360     		str	r3, [r4]	@ unaligned
 1448 0044 BDF80530 		ldrh	r3, [sp, #5]	@ unaligned
 1449 0048 A380     		strh	r3, [r4, #4]	@ unaligned
 385:Middlewares/ST/BlueNRG-MS/hci/hci_le.c ****   
 386:Middlewares/ST/BlueNRG-MS/hci/hci_le.c ****   return 0;
 1450              		.loc 1 386 3 view .LVU447
 1451              	.L58:
 387:Middlewares/ST/BlueNRG-MS/hci/hci_le.c **** }
ARM GAS  /tmp/cc11VlkJ.s 			page 33


 1452              		.loc 1 387 1 is_stmt 0 view .LVU448
 1453 004a 08B0     		add	sp, sp, #32
 1454              	.LCFI54:
 1455              		.cfi_remember_state
 1456              		.cfi_def_cfa_offset 8
 1457              		@ sp needed
 1458 004c 10BD     		pop	{r4, pc}
 1459              	.LVL64:
 1460              	.L61:
 1461              	.LCFI55:
 1462              		.cfi_restore_state
 379:Middlewares/ST/BlueNRG-MS/hci/hci_le.c ****   
 1463              		.loc 1 379 12 view .LVU449
 1464 004e FF20     		movs	r0, #255
 1465 0050 FBE7     		b	.L58
 1466              		.cfi_endproc
 1467              	.LFE305:
 1469              		.section	.text.hci_le_create_connection,"ax",%progbits
 1470              		.align	1
 1471              		.global	hci_le_create_connection
 1472              		.syntax unified
 1473              		.thumb
 1474              		.thumb_func
 1476              	hci_le_create_connection:
 1477              	.LVL65:
 1478              	.LFB306:
 388:Middlewares/ST/BlueNRG-MS/hci/hci_le.c **** 
 389:Middlewares/ST/BlueNRG-MS/hci/hci_le.c **** int hci_le_create_connection(uint16_t interval,	uint16_t window, uint8_t initiator_filter, uint8_t 
 390:Middlewares/ST/BlueNRG-MS/hci/hci_le.c ****                              const tBDAddr peer_bdaddr,	uint8_t	own_bdaddr_type, uint16_t min_inter
 391:Middlewares/ST/BlueNRG-MS/hci/hci_le.c ****                              uint16_t latency,	uint16_t supervision_timeout, uint16_t min_ce_length
 392:Middlewares/ST/BlueNRG-MS/hci/hci_le.c **** {
 1479              		.loc 1 392 1 is_stmt 1 view -0
 1480              		.cfi_startproc
 1481              		@ args = 32, pretend = 0, frame = 56
 1482              		@ frame_needed = 0, uses_anonymous_args = 0
 1483              		.loc 1 392 1 is_stmt 0 view .LVU451
 1484 0000 30B5     		push	{r4, r5, lr}
 1485              	.LCFI56:
 1486              		.cfi_def_cfa_offset 12
 1487              		.cfi_offset 4, -12
 1488              		.cfi_offset 5, -8
 1489              		.cfi_offset 14, -4
 1490 0002 8FB0     		sub	sp, sp, #60
 1491              	.LCFI57:
 1492              		.cfi_def_cfa_offset 72
 1493 0004 8C46     		mov	ip, r1
 1494 0006 129D     		ldr	r5, [sp, #72]
 393:Middlewares/ST/BlueNRG-MS/hci/hci_le.c ****   struct hci_request rq;
 1495              		.loc 1 393 3 is_stmt 1 view .LVU452
 394:Middlewares/ST/BlueNRG-MS/hci/hci_le.c ****   le_create_connection_cp create_cp;
 1496              		.loc 1 394 3 view .LVU453
 395:Middlewares/ST/BlueNRG-MS/hci/hci_le.c ****   uint8_t status;
 1497              		.loc 1 395 3 view .LVU454
 396:Middlewares/ST/BlueNRG-MS/hci/hci_le.c ****   
 397:Middlewares/ST/BlueNRG-MS/hci/hci_le.c ****   BLUENRG_memset(&create_cp, 0, sizeof(create_cp));
 1498              		.loc 1 397 3 view .LVU455
 1499 0008 01AC     		add	r4, sp, #4
ARM GAS  /tmp/cc11VlkJ.s 			page 34


 1500 000a 0021     		movs	r1, #0
 1501              	.LVL66:
 1502              		.loc 1 397 3 is_stmt 0 view .LVU456
 1503 000c 0191     		str	r1, [sp, #4]
 1504 000e 0291     		str	r1, [sp, #8]
 1505 0010 0391     		str	r1, [sp, #12]
 1506 0012 0491     		str	r1, [sp, #16]
 1507 0014 0591     		str	r1, [sp, #20]
 1508 0016 0691     		str	r1, [sp, #24]
 1509 0018 8DF81C10 		strb	r1, [sp, #28]
 398:Middlewares/ST/BlueNRG-MS/hci/hci_le.c ****   create_cp.interval = interval;
 1510              		.loc 1 398 3 is_stmt 1 view .LVU457
 1511              		.loc 1 398 22 is_stmt 0 view .LVU458
 1512 001c ADF80400 		strh	r0, [sp, #4]	@ movhi
 399:Middlewares/ST/BlueNRG-MS/hci/hci_le.c ****   create_cp.window =  window;
 1513              		.loc 1 399 3 is_stmt 1 view .LVU459
 1514              		.loc 1 399 20 is_stmt 0 view .LVU460
 1515 0020 ADF806C0 		strh	ip, [sp, #6]	@ movhi
 400:Middlewares/ST/BlueNRG-MS/hci/hci_le.c ****   create_cp.initiator_filter = initiator_filter;
 1516              		.loc 1 400 3 is_stmt 1 view .LVU461
 1517              		.loc 1 400 30 is_stmt 0 view .LVU462
 1518 0024 8DF80820 		strb	r2, [sp, #8]
 401:Middlewares/ST/BlueNRG-MS/hci/hci_le.c ****   create_cp.peer_bdaddr_type = peer_bdaddr_type;
 1519              		.loc 1 401 3 is_stmt 1 view .LVU463
 1520              		.loc 1 401 30 is_stmt 0 view .LVU464
 1521 0028 8DF80930 		strb	r3, [sp, #9]
 402:Middlewares/ST/BlueNRG-MS/hci/hci_le.c ****   BLUENRG_memcpy(create_cp.peer_bdaddr, peer_bdaddr, sizeof(tBDAddr));
 1522              		.loc 1 402 3 is_stmt 1 view .LVU465
 1523 002c 2B68     		ldr	r3, [r5]	@ unaligned
 1524              	.LVL67:
 1525              		.loc 1 402 3 is_stmt 0 view .LVU466
 1526 002e CDF80A30 		str	r3, [sp, #10]	@ unaligned
 1527 0032 AB88     		ldrh	r3, [r5, #4]	@ unaligned
 1528 0034 ADF80E30 		strh	r3, [sp, #14]	@ unaligned
 403:Middlewares/ST/BlueNRG-MS/hci/hci_le.c ****   create_cp.own_bdaddr_type = own_bdaddr_type;
 1529              		.loc 1 403 3 is_stmt 1 view .LVU467
 1530              		.loc 1 403 29 is_stmt 0 view .LVU468
 1531 0038 9DF84C30 		ldrb	r3, [sp, #76]	@ zero_extendqisi2
 1532 003c 8DF81030 		strb	r3, [sp, #16]
 404:Middlewares/ST/BlueNRG-MS/hci/hci_le.c ****   create_cp.min_interval=min_interval;
 1533              		.loc 1 404 3 is_stmt 1 view .LVU469
 1534              		.loc 1 404 25 is_stmt 0 view .LVU470
 1535 0040 BDF85030 		ldrh	r3, [sp, #80]
 1536 0044 ADF81130 		strh	r3, [sp, #17]	@ unaligned
 405:Middlewares/ST/BlueNRG-MS/hci/hci_le.c ****   create_cp.max_interval=max_interval;
 1537              		.loc 1 405 3 is_stmt 1 view .LVU471
 1538              		.loc 1 405 25 is_stmt 0 view .LVU472
 1539 0048 BDF85430 		ldrh	r3, [sp, #84]
 1540 004c ADF81330 		strh	r3, [sp, #19]	@ unaligned
 406:Middlewares/ST/BlueNRG-MS/hci/hci_le.c ****   create_cp.latency = latency;
 1541              		.loc 1 406 3 is_stmt 1 view .LVU473
 1542              		.loc 1 406 21 is_stmt 0 view .LVU474
 1543 0050 BDF85830 		ldrh	r3, [sp, #88]
 1544 0054 ADF81530 		strh	r3, [sp, #21]	@ unaligned
 407:Middlewares/ST/BlueNRG-MS/hci/hci_le.c ****   create_cp.supervision_timeout=supervision_timeout;
 1545              		.loc 1 407 3 is_stmt 1 view .LVU475
 1546              		.loc 1 407 32 is_stmt 0 view .LVU476
ARM GAS  /tmp/cc11VlkJ.s 			page 35


 1547 0058 BDF85C30 		ldrh	r3, [sp, #92]
 1548 005c ADF81730 		strh	r3, [sp, #23]	@ unaligned
 408:Middlewares/ST/BlueNRG-MS/hci/hci_le.c ****   create_cp.min_ce_length=min_ce_length;
 1549              		.loc 1 408 3 is_stmt 1 view .LVU477
 1550              		.loc 1 408 26 is_stmt 0 view .LVU478
 1551 0060 BDF86030 		ldrh	r3, [sp, #96]
 1552 0064 ADF81930 		strh	r3, [sp, #25]	@ unaligned
 409:Middlewares/ST/BlueNRG-MS/hci/hci_le.c ****   create_cp.max_ce_length=max_ce_length;
 1553              		.loc 1 409 3 is_stmt 1 view .LVU479
 1554              		.loc 1 409 26 is_stmt 0 view .LVU480
 1555 0068 BDF86430 		ldrh	r3, [sp, #100]
 1556 006c ADF81B30 		strh	r3, [sp, #27]	@ unaligned
 410:Middlewares/ST/BlueNRG-MS/hci/hci_le.c ****   
 411:Middlewares/ST/BlueNRG-MS/hci/hci_le.c ****   BLUENRG_memset(&rq, 0, sizeof(rq));
 1557              		.loc 1 411 3 is_stmt 1 view .LVU481
 1558 0070 0891     		str	r1, [sp, #32]
 1559 0072 0991     		str	r1, [sp, #36]
 1560 0074 0A91     		str	r1, [sp, #40]
 1561 0076 0B91     		str	r1, [sp, #44]
 1562 0078 0C91     		str	r1, [sp, #48]
 1563 007a 0D91     		str	r1, [sp, #52]
 412:Middlewares/ST/BlueNRG-MS/hci/hci_le.c ****   rq.ogf = OGF_LE_CTL;
 1564              		.loc 1 412 3 view .LVU482
 1565              		.loc 1 412 10 is_stmt 0 view .LVU483
 1566 007c 0823     		movs	r3, #8
 1567 007e ADF82030 		strh	r3, [sp, #32]	@ movhi
 413:Middlewares/ST/BlueNRG-MS/hci/hci_le.c ****   rq.ocf = OCF_LE_CREATE_CONN;
 1568              		.loc 1 413 3 is_stmt 1 view .LVU484
 1569              		.loc 1 413 10 is_stmt 0 view .LVU485
 1570 0082 0D23     		movs	r3, #13
 1571 0084 ADF82230 		strh	r3, [sp, #34]	@ movhi
 414:Middlewares/ST/BlueNRG-MS/hci/hci_le.c ****   rq.cparam = &create_cp;
 1572              		.loc 1 414 3 is_stmt 1 view .LVU486
 1573              		.loc 1 414 13 is_stmt 0 view .LVU487
 1574 0088 0A94     		str	r4, [sp, #40]
 415:Middlewares/ST/BlueNRG-MS/hci/hci_le.c ****   rq.clen = LE_CREATE_CONN_CP_SIZE;
 1575              		.loc 1 415 3 is_stmt 1 view .LVU488
 1576              		.loc 1 415 11 is_stmt 0 view .LVU489
 1577 008a 1923     		movs	r3, #25
 1578 008c 0B93     		str	r3, [sp, #44]
 416:Middlewares/ST/BlueNRG-MS/hci/hci_le.c ****   rq.event = EVT_CMD_STATUS;
 1579              		.loc 1 416 3 is_stmt 1 view .LVU490
 1580              		.loc 1 416 12 is_stmt 0 view .LVU491
 1581 008e 0F23     		movs	r3, #15
 1582 0090 0993     		str	r3, [sp, #36]
 417:Middlewares/ST/BlueNRG-MS/hci/hci_le.c ****   rq.rparam = &status;
 1583              		.loc 1 417 3 is_stmt 1 view .LVU492
 1584              		.loc 1 417 13 is_stmt 0 view .LVU493
 1585 0092 0DF10303 		add	r3, sp, #3
 1586 0096 0C93     		str	r3, [sp, #48]
 418:Middlewares/ST/BlueNRG-MS/hci/hci_le.c ****   rq.rlen = 1;
 1587              		.loc 1 418 3 is_stmt 1 view .LVU494
 1588              		.loc 1 418 11 is_stmt 0 view .LVU495
 1589 0098 0123     		movs	r3, #1
 1590 009a 0D93     		str	r3, [sp, #52]
 419:Middlewares/ST/BlueNRG-MS/hci/hci_le.c ****   
 420:Middlewares/ST/BlueNRG-MS/hci/hci_le.c ****   if (hci_send_req(&rq, FALSE) < 0)
ARM GAS  /tmp/cc11VlkJ.s 			page 36


 1591              		.loc 1 420 3 is_stmt 1 view .LVU496
 1592              		.loc 1 420 7 is_stmt 0 view .LVU497
 1593 009c 08A8     		add	r0, sp, #32
 1594              	.LVL68:
 1595              		.loc 1 420 7 view .LVU498
 1596 009e FFF7FEFF 		bl	hci_send_req
 1597              	.LVL69:
 1598              		.loc 1 420 6 view .LVU499
 1599 00a2 0028     		cmp	r0, #0
 1600 00a4 03DB     		blt	.L65
 421:Middlewares/ST/BlueNRG-MS/hci/hci_le.c ****     return BLE_STATUS_TIMEOUT;
 422:Middlewares/ST/BlueNRG-MS/hci/hci_le.c ****   
 423:Middlewares/ST/BlueNRG-MS/hci/hci_le.c ****   return status;
 1601              		.loc 1 423 3 is_stmt 1 view .LVU500
 1602              		.loc 1 423 10 is_stmt 0 view .LVU501
 1603 00a6 9DF80300 		ldrb	r0, [sp, #3]	@ zero_extendqisi2
 1604              	.L63:
 424:Middlewares/ST/BlueNRG-MS/hci/hci_le.c **** }
 1605              		.loc 1 424 1 view .LVU502
 1606 00aa 0FB0     		add	sp, sp, #60
 1607              	.LCFI58:
 1608              		.cfi_remember_state
 1609              		.cfi_def_cfa_offset 12
 1610              		@ sp needed
 1611 00ac 30BD     		pop	{r4, r5, pc}
 1612              	.LVL70:
 1613              	.L65:
 1614              	.LCFI59:
 1615              		.cfi_restore_state
 421:Middlewares/ST/BlueNRG-MS/hci/hci_le.c ****     return BLE_STATUS_TIMEOUT;
 1616              		.loc 1 421 12 view .LVU503
 1617 00ae FF20     		movs	r0, #255
 1618 00b0 FBE7     		b	.L63
 1619              		.cfi_endproc
 1620              	.LFE306:
 1622              		.section	.text.hci_le_create_connection_cancel,"ax",%progbits
 1623              		.align	1
 1624              		.global	hci_le_create_connection_cancel
 1625              		.syntax unified
 1626              		.thumb
 1627              		.thumb_func
 1629              	hci_le_create_connection_cancel:
 1630              	.LFB307:
 425:Middlewares/ST/BlueNRG-MS/hci/hci_le.c **** 
 426:Middlewares/ST/BlueNRG-MS/hci/hci_le.c **** int hci_le_create_connection_cancel(void)
 427:Middlewares/ST/BlueNRG-MS/hci/hci_le.c **** {
 1631              		.loc 1 427 1 is_stmt 1 view -0
 1632              		.cfi_startproc
 1633              		@ args = 0, pretend = 0, frame = 32
 1634              		@ frame_needed = 0, uses_anonymous_args = 0
 1635 0000 00B5     		push	{lr}
 1636              	.LCFI60:
 1637              		.cfi_def_cfa_offset 4
 1638              		.cfi_offset 14, -4
 1639 0002 89B0     		sub	sp, sp, #36
 1640              	.LCFI61:
 1641              		.cfi_def_cfa_offset 40
ARM GAS  /tmp/cc11VlkJ.s 			page 37


 428:Middlewares/ST/BlueNRG-MS/hci/hci_le.c ****   struct hci_request rq;
 1642              		.loc 1 428 3 view .LVU505
 429:Middlewares/ST/BlueNRG-MS/hci/hci_le.c ****   uint8_t status;
 1643              		.loc 1 429 3 view .LVU506
 430:Middlewares/ST/BlueNRG-MS/hci/hci_le.c ****   
 431:Middlewares/ST/BlueNRG-MS/hci/hci_le.c ****   BLUENRG_memset(&rq, 0, sizeof(rq));
 1644              		.loc 1 431 3 view .LVU507
 1645 0004 0021     		movs	r1, #0
 1646 0006 0291     		str	r1, [sp, #8]
 1647 0008 0391     		str	r1, [sp, #12]
 1648 000a 0491     		str	r1, [sp, #16]
 1649 000c 0591     		str	r1, [sp, #20]
 1650 000e 0691     		str	r1, [sp, #24]
 1651 0010 0791     		str	r1, [sp, #28]
 432:Middlewares/ST/BlueNRG-MS/hci/hci_le.c ****   rq.ogf = OGF_LE_CTL;
 1652              		.loc 1 432 3 view .LVU508
 1653              		.loc 1 432 10 is_stmt 0 view .LVU509
 1654 0012 0823     		movs	r3, #8
 1655 0014 ADF80830 		strh	r3, [sp, #8]	@ movhi
 433:Middlewares/ST/BlueNRG-MS/hci/hci_le.c ****   rq.ocf = OCF_LE_CREATE_CONN_CANCEL;
 1656              		.loc 1 433 3 is_stmt 1 view .LVU510
 1657              		.loc 1 433 10 is_stmt 0 view .LVU511
 1658 0018 0E23     		movs	r3, #14
 1659 001a ADF80A30 		strh	r3, [sp, #10]	@ movhi
 434:Middlewares/ST/BlueNRG-MS/hci/hci_le.c ****   rq.rparam = &status;
 1660              		.loc 1 434 3 is_stmt 1 view .LVU512
 1661              		.loc 1 434 13 is_stmt 0 view .LVU513
 1662 001e 0DF10703 		add	r3, sp, #7
 1663 0022 0693     		str	r3, [sp, #24]
 435:Middlewares/ST/BlueNRG-MS/hci/hci_le.c ****   rq.rlen = 1;
 1664              		.loc 1 435 3 is_stmt 1 view .LVU514
 1665              		.loc 1 435 11 is_stmt 0 view .LVU515
 1666 0024 0123     		movs	r3, #1
 1667 0026 0793     		str	r3, [sp, #28]
 436:Middlewares/ST/BlueNRG-MS/hci/hci_le.c ****   
 437:Middlewares/ST/BlueNRG-MS/hci/hci_le.c ****   if (hci_send_req(&rq, FALSE) < 0)
 1668              		.loc 1 437 3 is_stmt 1 view .LVU516
 1669              		.loc 1 437 7 is_stmt 0 view .LVU517
 1670 0028 02A8     		add	r0, sp, #8
 1671 002a FFF7FEFF 		bl	hci_send_req
 1672              	.LVL71:
 1673              		.loc 1 437 6 view .LVU518
 1674 002e 0028     		cmp	r0, #0
 1675 0030 04DB     		blt	.L69
 438:Middlewares/ST/BlueNRG-MS/hci/hci_le.c ****     return BLE_STATUS_TIMEOUT;
 439:Middlewares/ST/BlueNRG-MS/hci/hci_le.c ****   
 440:Middlewares/ST/BlueNRG-MS/hci/hci_le.c ****   return status;  
 1676              		.loc 1 440 3 is_stmt 1 view .LVU519
 1677              		.loc 1 440 10 is_stmt 0 view .LVU520
 1678 0032 9DF80700 		ldrb	r0, [sp, #7]	@ zero_extendqisi2
 1679              	.L67:
 441:Middlewares/ST/BlueNRG-MS/hci/hci_le.c **** }
 1680              		.loc 1 441 1 view .LVU521
 1681 0036 09B0     		add	sp, sp, #36
 1682              	.LCFI62:
 1683              		.cfi_remember_state
 1684              		.cfi_def_cfa_offset 4
ARM GAS  /tmp/cc11VlkJ.s 			page 38


 1685              		@ sp needed
 1686 0038 5DF804FB 		ldr	pc, [sp], #4
 1687              	.L69:
 1688              	.LCFI63:
 1689              		.cfi_restore_state
 438:Middlewares/ST/BlueNRG-MS/hci/hci_le.c ****     return BLE_STATUS_TIMEOUT;
 1690              		.loc 1 438 12 view .LVU522
 1691 003c FF20     		movs	r0, #255
 1692 003e FAE7     		b	.L67
 1693              		.cfi_endproc
 1694              	.LFE307:
 1696              		.section	.text.hci_le_encrypt,"ax",%progbits
 1697              		.align	1
 1698              		.global	hci_le_encrypt
 1699              		.syntax unified
 1700              		.thumb
 1701              		.thumb_func
 1703              	hci_le_encrypt:
 1704              	.LVL72:
 1705              	.LFB308:
 442:Middlewares/ST/BlueNRG-MS/hci/hci_le.c **** 
 443:Middlewares/ST/BlueNRG-MS/hci/hci_le.c **** int hci_le_encrypt(uint8_t key[16], uint8_t plaintextData[16], uint8_t encryptedData[16])
 444:Middlewares/ST/BlueNRG-MS/hci/hci_le.c **** {
 1706              		.loc 1 444 1 is_stmt 1 view -0
 1707              		.cfi_startproc
 1708              		@ args = 0, pretend = 0, frame = 80
 1709              		@ frame_needed = 0, uses_anonymous_args = 0
 1710              		.loc 1 444 1 is_stmt 0 view .LVU524
 1711 0000 70B5     		push	{r4, r5, r6, lr}
 1712              	.LCFI64:
 1713              		.cfi_def_cfa_offset 16
 1714              		.cfi_offset 4, -16
 1715              		.cfi_offset 5, -12
 1716              		.cfi_offset 6, -8
 1717              		.cfi_offset 14, -4
 1718 0002 94B0     		sub	sp, sp, #80
 1719              	.LCFI65:
 1720              		.cfi_def_cfa_offset 96
 1721 0004 0346     		mov	r3, r0
 1722 0006 8E46     		mov	lr, r1
 1723 0008 1646     		mov	r6, r2
 445:Middlewares/ST/BlueNRG-MS/hci/hci_le.c ****   struct hci_request rq;
 1724              		.loc 1 445 3 is_stmt 1 view .LVU525
 446:Middlewares/ST/BlueNRG-MS/hci/hci_le.c ****   le_encrypt_cp params;
 1725              		.loc 1 446 3 view .LVU526
 447:Middlewares/ST/BlueNRG-MS/hci/hci_le.c ****   le_encrypt_rp resp;
 1726              		.loc 1 447 3 view .LVU527
 448:Middlewares/ST/BlueNRG-MS/hci/hci_le.c ****   
 449:Middlewares/ST/BlueNRG-MS/hci/hci_le.c ****   BLUENRG_memset(&resp, 0, sizeof(resp));
 1727              		.loc 1 449 3 view .LVU528
 1728 000a 01AD     		add	r5, sp, #4
 1729 000c 0024     		movs	r4, #0
 1730 000e 0194     		str	r4, [sp, #4]
 1731 0010 0294     		str	r4, [sp, #8]
 1732 0012 0394     		str	r4, [sp, #12]
 1733 0014 0494     		str	r4, [sp, #16]
 1734 0016 8DF81440 		strb	r4, [sp, #20]
ARM GAS  /tmp/cc11VlkJ.s 			page 39


 450:Middlewares/ST/BlueNRG-MS/hci/hci_le.c ****   
 451:Middlewares/ST/BlueNRG-MS/hci/hci_le.c ****   BLUENRG_memcpy(params.key, key, 16);
 1735              		.loc 1 451 3 view .LVU529
 1736 001a 0DF1180C 		add	ip, sp, #24
 1737 001e 0068     		ldr	r0, [r0]	@ unaligned
 1738              	.LVL73:
 1739              		.loc 1 451 3 is_stmt 0 view .LVU530
 1740 0020 5968     		ldr	r1, [r3, #4]	@ unaligned
 1741              	.LVL74:
 1742              		.loc 1 451 3 view .LVU531
 1743 0022 9A68     		ldr	r2, [r3, #8]	@ unaligned
 1744              	.LVL75:
 1745              		.loc 1 451 3 view .LVU532
 1746 0024 DB68     		ldr	r3, [r3, #12]	@ unaligned
 1747              	.LVL76:
 1748              		.loc 1 451 3 view .LVU533
 1749 0026 ACE80F00 		stmia	ip!, {r0, r1, r2, r3}
 452:Middlewares/ST/BlueNRG-MS/hci/hci_le.c ****   BLUENRG_memcpy(params.plaintext, plaintextData, 16);
 1750              		.loc 1 452 3 is_stmt 1 view .LVU534
 1751 002a DEF80000 		ldr	r0, [lr]	@ unaligned
 1752 002e DEF80410 		ldr	r1, [lr, #4]	@ unaligned
 1753 0032 DEF80820 		ldr	r2, [lr, #8]	@ unaligned
 1754 0036 DEF80C30 		ldr	r3, [lr, #12]	@ unaligned
 1755 003a ACE80F00 		stmia	ip!, {r0, r1, r2, r3}
 453:Middlewares/ST/BlueNRG-MS/hci/hci_le.c ****   
 454:Middlewares/ST/BlueNRG-MS/hci/hci_le.c ****   BLUENRG_memset(&rq, 0, sizeof(rq));
 1756              		.loc 1 454 3 view .LVU535
 1757 003e 0E94     		str	r4, [sp, #56]
 1758 0040 0F94     		str	r4, [sp, #60]
 1759 0042 1094     		str	r4, [sp, #64]
 1760 0044 1194     		str	r4, [sp, #68]
 1761 0046 1294     		str	r4, [sp, #72]
 1762 0048 1394     		str	r4, [sp, #76]
 455:Middlewares/ST/BlueNRG-MS/hci/hci_le.c ****   rq.ogf = OGF_LE_CTL;
 1763              		.loc 1 455 3 view .LVU536
 1764              		.loc 1 455 10 is_stmt 0 view .LVU537
 1765 004a 0823     		movs	r3, #8
 1766 004c ADF83830 		strh	r3, [sp, #56]	@ movhi
 456:Middlewares/ST/BlueNRG-MS/hci/hci_le.c ****   rq.ocf = OCF_LE_ENCRYPT;
 1767              		.loc 1 456 3 is_stmt 1 view .LVU538
 1768              		.loc 1 456 10 is_stmt 0 view .LVU539
 1769 0050 1723     		movs	r3, #23
 1770 0052 ADF83A30 		strh	r3, [sp, #58]	@ movhi
 457:Middlewares/ST/BlueNRG-MS/hci/hci_le.c ****   rq.cparam = &params;
 1771              		.loc 1 457 3 is_stmt 1 view .LVU540
 1772              		.loc 1 457 13 is_stmt 0 view .LVU541
 1773 0056 06AB     		add	r3, sp, #24
 1774 0058 1093     		str	r3, [sp, #64]
 458:Middlewares/ST/BlueNRG-MS/hci/hci_le.c ****   rq.clen = LE_ENCRYPT_CP_SIZE;
 1775              		.loc 1 458 3 is_stmt 1 view .LVU542
 1776              		.loc 1 458 11 is_stmt 0 view .LVU543
 1777 005a 2023     		movs	r3, #32
 1778 005c 1193     		str	r3, [sp, #68]
 459:Middlewares/ST/BlueNRG-MS/hci/hci_le.c ****   rq.rparam = &resp;
 1779              		.loc 1 459 3 is_stmt 1 view .LVU544
 1780              		.loc 1 459 13 is_stmt 0 view .LVU545
 1781 005e 1295     		str	r5, [sp, #72]
ARM GAS  /tmp/cc11VlkJ.s 			page 40


 460:Middlewares/ST/BlueNRG-MS/hci/hci_le.c ****   rq.rlen = LE_ENCRYPT_RP_SIZE;
 1782              		.loc 1 460 3 is_stmt 1 view .LVU546
 1783              		.loc 1 460 11 is_stmt 0 view .LVU547
 1784 0060 1123     		movs	r3, #17
 1785 0062 1393     		str	r3, [sp, #76]
 461:Middlewares/ST/BlueNRG-MS/hci/hci_le.c ****   
 462:Middlewares/ST/BlueNRG-MS/hci/hci_le.c ****   if (hci_send_req(&rq, FALSE) < 0){
 1786              		.loc 1 462 3 is_stmt 1 view .LVU548
 1787              		.loc 1 462 7 is_stmt 0 view .LVU549
 1788 0064 2146     		mov	r1, r4
 1789 0066 6046     		mov	r0, ip
 1790 0068 FFF7FEFF 		bl	hci_send_req
 1791              	.LVL77:
 1792              		.loc 1 462 6 view .LVU550
 1793 006c A042     		cmp	r0, r4
 1794 006e 11DB     		blt	.L74
 463:Middlewares/ST/BlueNRG-MS/hci/hci_le.c ****     return BLE_STATUS_TIMEOUT;
 464:Middlewares/ST/BlueNRG-MS/hci/hci_le.c ****   }
 465:Middlewares/ST/BlueNRG-MS/hci/hci_le.c ****   
 466:Middlewares/ST/BlueNRG-MS/hci/hci_le.c ****   if (resp.status) {
 1795              		.loc 1 466 3 is_stmt 1 view .LVU551
 1796              		.loc 1 466 11 is_stmt 0 view .LVU552
 1797 0070 9DF80400 		ldrb	r0, [sp, #4]	@ zero_extendqisi2
 1798              		.loc 1 466 6 view .LVU553
 1799 0074 60B9     		cbnz	r0, .L71
 467:Middlewares/ST/BlueNRG-MS/hci/hci_le.c ****     return resp.status;
 468:Middlewares/ST/BlueNRG-MS/hci/hci_le.c ****   }
 469:Middlewares/ST/BlueNRG-MS/hci/hci_le.c ****   
 470:Middlewares/ST/BlueNRG-MS/hci/hci_le.c ****   BLUENRG_memcpy(encryptedData, resp.encdata, 16);
 1800              		.loc 1 470 3 is_stmt 1 view .LVU554
 1801 0076 DDF80500 		ldr	r0, [sp, #5]	@ unaligned
 1802 007a DDF80910 		ldr	r1, [sp, #9]	@ unaligned
 1803 007e DDF80D20 		ldr	r2, [sp, #13]	@ unaligned
 1804 0082 DDF81130 		ldr	r3, [sp, #17]	@ unaligned
 1805 0086 3060     		str	r0, [r6]	@ unaligned
 1806 0088 7160     		str	r1, [r6, #4]	@ unaligned
 1807 008a B260     		str	r2, [r6, #8]	@ unaligned
 1808 008c F360     		str	r3, [r6, #12]	@ unaligned
 471:Middlewares/ST/BlueNRG-MS/hci/hci_le.c ****   
 472:Middlewares/ST/BlueNRG-MS/hci/hci_le.c ****   return 0;
 1809              		.loc 1 472 3 view .LVU555
 1810              		.loc 1 472 10 is_stmt 0 view .LVU556
 1811 008e 2046     		mov	r0, r4
 1812              	.L71:
 473:Middlewares/ST/BlueNRG-MS/hci/hci_le.c **** }
 1813              		.loc 1 473 1 view .LVU557
 1814 0090 14B0     		add	sp, sp, #80
 1815              	.LCFI66:
 1816              		.cfi_remember_state
 1817              		.cfi_def_cfa_offset 16
 1818              		@ sp needed
 1819 0092 70BD     		pop	{r4, r5, r6, pc}
 1820              	.LVL78:
 1821              	.L74:
 1822              	.LCFI67:
 1823              		.cfi_restore_state
 463:Middlewares/ST/BlueNRG-MS/hci/hci_le.c ****   }
ARM GAS  /tmp/cc11VlkJ.s 			page 41


 1824              		.loc 1 463 12 view .LVU558
 1825 0094 FF20     		movs	r0, #255
 1826 0096 FBE7     		b	.L71
 1827              		.cfi_endproc
 1828              	.LFE308:
 1830              		.section	.text.hci_le_ltk_request_reply,"ax",%progbits
 1831              		.align	1
 1832              		.global	hci_le_ltk_request_reply
 1833              		.syntax unified
 1834              		.thumb
 1835              		.thumb_func
 1837              	hci_le_ltk_request_reply:
 1838              	.LVL79:
 1839              	.LFB309:
 474:Middlewares/ST/BlueNRG-MS/hci/hci_le.c **** 
 475:Middlewares/ST/BlueNRG-MS/hci/hci_le.c **** int hci_le_ltk_request_reply(uint8_t key[16])
 476:Middlewares/ST/BlueNRG-MS/hci/hci_le.c **** {
 1840              		.loc 1 476 1 is_stmt 1 view -0
 1841              		.cfi_startproc
 1842              		@ args = 0, pretend = 0, frame = 48
 1843              		@ frame_needed = 0, uses_anonymous_args = 0
 1844              		.loc 1 476 1 is_stmt 0 view .LVU560
 1845 0000 00B5     		push	{lr}
 1846              	.LCFI68:
 1847              		.cfi_def_cfa_offset 4
 1848              		.cfi_offset 14, -4
 1849 0002 8DB0     		sub	sp, sp, #52
 1850              	.LCFI69:
 1851              		.cfi_def_cfa_offset 56
 477:Middlewares/ST/BlueNRG-MS/hci/hci_le.c ****   struct hci_request rq;
 1852              		.loc 1 477 3 is_stmt 1 view .LVU561
 478:Middlewares/ST/BlueNRG-MS/hci/hci_le.c ****   le_ltk_reply_cp params;
 1853              		.loc 1 478 3 view .LVU562
 479:Middlewares/ST/BlueNRG-MS/hci/hci_le.c ****   le_ltk_reply_rp resp;
 1854              		.loc 1 479 3 view .LVU563
 480:Middlewares/ST/BlueNRG-MS/hci/hci_le.c ****   
 481:Middlewares/ST/BlueNRG-MS/hci/hci_le.c ****   BLUENRG_memset(&resp, 0, sizeof(resp));
 1855              		.loc 1 481 3 view .LVU564
 1856 0004 0021     		movs	r1, #0
 1857 0006 ADF80010 		strh	r1, [sp]	@ movhi
 1858 000a 8DF80210 		strb	r1, [sp, #2]
 482:Middlewares/ST/BlueNRG-MS/hci/hci_le.c ****   
 483:Middlewares/ST/BlueNRG-MS/hci/hci_le.c ****   params.handle = 1;
 1859              		.loc 1 483 3 view .LVU565
 1860              		.loc 1 483 17 is_stmt 0 view .LVU566
 1861 000e 0123     		movs	r3, #1
 1862 0010 ADF80430 		strh	r3, [sp, #4]	@ movhi
 484:Middlewares/ST/BlueNRG-MS/hci/hci_le.c ****   BLUENRG_memcpy(params.key, key, 16);
 1863              		.loc 1 484 3 is_stmt 1 view .LVU567
 1864 0014 D0F800E0 		ldr	lr, [r0]	@ unaligned
 1865 0018 D0F804C0 		ldr	ip, [r0, #4]	@ unaligned
 1866 001c 8268     		ldr	r2, [r0, #8]	@ unaligned
 1867 001e C368     		ldr	r3, [r0, #12]	@ unaligned
 1868 0020 CDF806E0 		str	lr, [sp, #6]	@ unaligned
 1869 0024 CDF80AC0 		str	ip, [sp, #10]	@ unaligned
 1870 0028 CDF80E20 		str	r2, [sp, #14]	@ unaligned
 1871 002c CDF81230 		str	r3, [sp, #18]	@ unaligned
ARM GAS  /tmp/cc11VlkJ.s 			page 42


 485:Middlewares/ST/BlueNRG-MS/hci/hci_le.c ****   
 486:Middlewares/ST/BlueNRG-MS/hci/hci_le.c ****   BLUENRG_memset(&rq, 0, sizeof(rq));
 1872              		.loc 1 486 3 view .LVU568
 1873 0030 0691     		str	r1, [sp, #24]
 1874 0032 0791     		str	r1, [sp, #28]
 1875 0034 0891     		str	r1, [sp, #32]
 1876 0036 0991     		str	r1, [sp, #36]
 1877 0038 0A91     		str	r1, [sp, #40]
 1878 003a 0B91     		str	r1, [sp, #44]
 487:Middlewares/ST/BlueNRG-MS/hci/hci_le.c ****   rq.ogf = OGF_LE_CTL;
 1879              		.loc 1 487 3 view .LVU569
 1880              		.loc 1 487 10 is_stmt 0 view .LVU570
 1881 003c 0823     		movs	r3, #8
 1882 003e ADF81830 		strh	r3, [sp, #24]	@ movhi
 488:Middlewares/ST/BlueNRG-MS/hci/hci_le.c ****   rq.ocf = OCF_LE_LTK_REPLY;
 1883              		.loc 1 488 3 is_stmt 1 view .LVU571
 1884              		.loc 1 488 10 is_stmt 0 view .LVU572
 1885 0042 1A23     		movs	r3, #26
 1886 0044 ADF81A30 		strh	r3, [sp, #26]	@ movhi
 489:Middlewares/ST/BlueNRG-MS/hci/hci_le.c ****   rq.cparam = &params;
 1887              		.loc 1 489 3 is_stmt 1 view .LVU573
 1888              		.loc 1 489 13 is_stmt 0 view .LVU574
 1889 0048 01AB     		add	r3, sp, #4
 1890 004a 0893     		str	r3, [sp, #32]
 490:Middlewares/ST/BlueNRG-MS/hci/hci_le.c ****   rq.clen = LE_LTK_REPLY_CP_SIZE;
 1891              		.loc 1 490 3 is_stmt 1 view .LVU575
 1892              		.loc 1 490 11 is_stmt 0 view .LVU576
 1893 004c 1223     		movs	r3, #18
 1894 004e 0993     		str	r3, [sp, #36]
 491:Middlewares/ST/BlueNRG-MS/hci/hci_le.c ****   rq.rparam = &resp;
 1895              		.loc 1 491 3 is_stmt 1 view .LVU577
 1896              		.loc 1 491 13 is_stmt 0 view .LVU578
 1897 0050 CDF828D0 		str	sp, [sp, #40]
 492:Middlewares/ST/BlueNRG-MS/hci/hci_le.c ****   rq.rlen = LE_LTK_REPLY_RP_SIZE;
 1898              		.loc 1 492 3 is_stmt 1 view .LVU579
 1899              		.loc 1 492 11 is_stmt 0 view .LVU580
 1900 0054 0323     		movs	r3, #3
 1901 0056 0B93     		str	r3, [sp, #44]
 493:Middlewares/ST/BlueNRG-MS/hci/hci_le.c ****   
 494:Middlewares/ST/BlueNRG-MS/hci/hci_le.c ****   if (hci_send_req(&rq, FALSE) < 0)
 1902              		.loc 1 494 3 is_stmt 1 view .LVU581
 1903              		.loc 1 494 7 is_stmt 0 view .LVU582
 1904 0058 06A8     		add	r0, sp, #24
 1905              	.LVL80:
 1906              		.loc 1 494 7 view .LVU583
 1907 005a FFF7FEFF 		bl	hci_send_req
 1908              	.LVL81:
 1909              		.loc 1 494 6 view .LVU584
 1910 005e 0028     		cmp	r0, #0
 1911 0060 04DB     		blt	.L78
 495:Middlewares/ST/BlueNRG-MS/hci/hci_le.c ****     return BLE_STATUS_TIMEOUT;
 496:Middlewares/ST/BlueNRG-MS/hci/hci_le.c ****   
 497:Middlewares/ST/BlueNRG-MS/hci/hci_le.c ****   return resp.status;
 1912              		.loc 1 497 3 is_stmt 1 view .LVU585
 1913              		.loc 1 497 14 is_stmt 0 view .LVU586
 1914 0062 9DF80000 		ldrb	r0, [sp]	@ zero_extendqisi2
 1915              	.L76:
ARM GAS  /tmp/cc11VlkJ.s 			page 43


 498:Middlewares/ST/BlueNRG-MS/hci/hci_le.c **** }
 1916              		.loc 1 498 1 view .LVU587
 1917 0066 0DB0     		add	sp, sp, #52
 1918              	.LCFI70:
 1919              		.cfi_remember_state
 1920              		.cfi_def_cfa_offset 4
 1921              		@ sp needed
 1922 0068 5DF804FB 		ldr	pc, [sp], #4
 1923              	.L78:
 1924              	.LCFI71:
 1925              		.cfi_restore_state
 495:Middlewares/ST/BlueNRG-MS/hci/hci_le.c ****     return BLE_STATUS_TIMEOUT;
 1926              		.loc 1 495 12 view .LVU588
 1927 006c FF20     		movs	r0, #255
 1928 006e FAE7     		b	.L76
 1929              		.cfi_endproc
 1930              	.LFE309:
 1932              		.section	.text.hci_le_ltk_request_neg_reply,"ax",%progbits
 1933              		.align	1
 1934              		.global	hci_le_ltk_request_neg_reply
 1935              		.syntax unified
 1936              		.thumb
 1937              		.thumb_func
 1939              	hci_le_ltk_request_neg_reply:
 1940              	.LFB310:
 499:Middlewares/ST/BlueNRG-MS/hci/hci_le.c **** 
 500:Middlewares/ST/BlueNRG-MS/hci/hci_le.c **** int hci_le_ltk_request_neg_reply(void)
 501:Middlewares/ST/BlueNRG-MS/hci/hci_le.c **** {
 1941              		.loc 1 501 1 is_stmt 1 view -0
 1942              		.cfi_startproc
 1943              		@ args = 0, pretend = 0, frame = 32
 1944              		@ frame_needed = 0, uses_anonymous_args = 0
 1945 0000 00B5     		push	{lr}
 1946              	.LCFI72:
 1947              		.cfi_def_cfa_offset 4
 1948              		.cfi_offset 14, -4
 1949 0002 89B0     		sub	sp, sp, #36
 1950              	.LCFI73:
 1951              		.cfi_def_cfa_offset 40
 502:Middlewares/ST/BlueNRG-MS/hci/hci_le.c ****   struct hci_request rq;
 1952              		.loc 1 502 3 view .LVU590
 503:Middlewares/ST/BlueNRG-MS/hci/hci_le.c ****   le_ltk_neg_reply_cp params;
 1953              		.loc 1 503 3 view .LVU591
 504:Middlewares/ST/BlueNRG-MS/hci/hci_le.c ****   le_ltk_neg_reply_rp resp;
 1954              		.loc 1 504 3 view .LVU592
 505:Middlewares/ST/BlueNRG-MS/hci/hci_le.c ****   
 506:Middlewares/ST/BlueNRG-MS/hci/hci_le.c ****   BLUENRG_memset(&resp, 0, sizeof(resp));
 1955              		.loc 1 506 3 view .LVU593
 1956 0004 0021     		movs	r1, #0
 1957 0006 ADF80010 		strh	r1, [sp]	@ movhi
 1958 000a 8DF80210 		strb	r1, [sp, #2]
 507:Middlewares/ST/BlueNRG-MS/hci/hci_le.c ****   
 508:Middlewares/ST/BlueNRG-MS/hci/hci_le.c ****   params.handle = 1;
 1959              		.loc 1 508 3 view .LVU594
 1960              		.loc 1 508 17 is_stmt 0 view .LVU595
 1961 000e 0123     		movs	r3, #1
 1962 0010 ADF80430 		strh	r3, [sp, #4]	@ movhi
ARM GAS  /tmp/cc11VlkJ.s 			page 44


 509:Middlewares/ST/BlueNRG-MS/hci/hci_le.c ****   
 510:Middlewares/ST/BlueNRG-MS/hci/hci_le.c ****   BLUENRG_memset(&rq, 0, sizeof(rq));
 1963              		.loc 1 510 3 is_stmt 1 view .LVU596
 1964 0014 0291     		str	r1, [sp, #8]
 1965 0016 0391     		str	r1, [sp, #12]
 1966 0018 0491     		str	r1, [sp, #16]
 1967 001a 0591     		str	r1, [sp, #20]
 1968 001c 0691     		str	r1, [sp, #24]
 1969 001e 0791     		str	r1, [sp, #28]
 511:Middlewares/ST/BlueNRG-MS/hci/hci_le.c ****   rq.ogf = OGF_LE_CTL;
 1970              		.loc 1 511 3 view .LVU597
 1971              		.loc 1 511 10 is_stmt 0 view .LVU598
 1972 0020 0823     		movs	r3, #8
 1973 0022 ADF80830 		strh	r3, [sp, #8]	@ movhi
 512:Middlewares/ST/BlueNRG-MS/hci/hci_le.c ****   rq.ocf = OCF_LE_LTK_NEG_REPLY;
 1974              		.loc 1 512 3 is_stmt 1 view .LVU599
 1975              		.loc 1 512 10 is_stmt 0 view .LVU600
 1976 0026 1B23     		movs	r3, #27
 1977 0028 ADF80A30 		strh	r3, [sp, #10]	@ movhi
 513:Middlewares/ST/BlueNRG-MS/hci/hci_le.c ****   rq.cparam = &params;
 1978              		.loc 1 513 3 is_stmt 1 view .LVU601
 1979              		.loc 1 513 13 is_stmt 0 view .LVU602
 1980 002c 01AB     		add	r3, sp, #4
 1981 002e 0493     		str	r3, [sp, #16]
 514:Middlewares/ST/BlueNRG-MS/hci/hci_le.c ****   rq.clen = LE_LTK_NEG_REPLY_CP_SIZE;
 1982              		.loc 1 514 3 is_stmt 1 view .LVU603
 1983              		.loc 1 514 11 is_stmt 0 view .LVU604
 1984 0030 0223     		movs	r3, #2
 1985 0032 0593     		str	r3, [sp, #20]
 515:Middlewares/ST/BlueNRG-MS/hci/hci_le.c ****   rq.rparam = &resp;
 1986              		.loc 1 515 3 is_stmt 1 view .LVU605
 1987              		.loc 1 515 13 is_stmt 0 view .LVU606
 1988 0034 CDF818D0 		str	sp, [sp, #24]
 516:Middlewares/ST/BlueNRG-MS/hci/hci_le.c ****   rq.rlen = LE_LTK_NEG_REPLY_RP_SIZE;
 1989              		.loc 1 516 3 is_stmt 1 view .LVU607
 1990              		.loc 1 516 11 is_stmt 0 view .LVU608
 1991 0038 0323     		movs	r3, #3
 1992 003a 0793     		str	r3, [sp, #28]
 517:Middlewares/ST/BlueNRG-MS/hci/hci_le.c ****   
 518:Middlewares/ST/BlueNRG-MS/hci/hci_le.c ****   if (hci_send_req(&rq, FALSE) < 0)
 1993              		.loc 1 518 3 is_stmt 1 view .LVU609
 1994              		.loc 1 518 7 is_stmt 0 view .LVU610
 1995 003c 02A8     		add	r0, sp, #8
 1996 003e FFF7FEFF 		bl	hci_send_req
 1997              	.LVL82:
 1998              		.loc 1 518 6 view .LVU611
 1999 0042 0028     		cmp	r0, #0
 2000 0044 04DB     		blt	.L82
 519:Middlewares/ST/BlueNRG-MS/hci/hci_le.c ****     return BLE_STATUS_TIMEOUT;
 520:Middlewares/ST/BlueNRG-MS/hci/hci_le.c ****   
 521:Middlewares/ST/BlueNRG-MS/hci/hci_le.c ****   return resp.status;
 2001              		.loc 1 521 3 is_stmt 1 view .LVU612
 2002              		.loc 1 521 14 is_stmt 0 view .LVU613
 2003 0046 9DF80000 		ldrb	r0, [sp]	@ zero_extendqisi2
 2004              	.L80:
 522:Middlewares/ST/BlueNRG-MS/hci/hci_le.c **** }
 2005              		.loc 1 522 1 view .LVU614
ARM GAS  /tmp/cc11VlkJ.s 			page 45


 2006 004a 09B0     		add	sp, sp, #36
 2007              	.LCFI74:
 2008              		.cfi_remember_state
 2009              		.cfi_def_cfa_offset 4
 2010              		@ sp needed
 2011 004c 5DF804FB 		ldr	pc, [sp], #4
 2012              	.L82:
 2013              	.LCFI75:
 2014              		.cfi_restore_state
 519:Middlewares/ST/BlueNRG-MS/hci/hci_le.c ****     return BLE_STATUS_TIMEOUT;
 2015              		.loc 1 519 12 view .LVU615
 2016 0050 FF20     		movs	r0, #255
 2017 0052 FAE7     		b	.L80
 2018              		.cfi_endproc
 2019              	.LFE310:
 2021              		.section	.text.hci_le_read_white_list_size,"ax",%progbits
 2022              		.align	1
 2023              		.global	hci_le_read_white_list_size
 2024              		.syntax unified
 2025              		.thumb
 2026              		.thumb_func
 2028              	hci_le_read_white_list_size:
 2029              	.LVL83:
 2030              	.LFB311:
 523:Middlewares/ST/BlueNRG-MS/hci/hci_le.c **** 
 524:Middlewares/ST/BlueNRG-MS/hci/hci_le.c **** int hci_le_read_white_list_size(uint8_t *size)
 525:Middlewares/ST/BlueNRG-MS/hci/hci_le.c **** {
 2031              		.loc 1 525 1 is_stmt 1 view -0
 2032              		.cfi_startproc
 2033              		@ args = 0, pretend = 0, frame = 32
 2034              		@ frame_needed = 0, uses_anonymous_args = 0
 2035              		.loc 1 525 1 is_stmt 0 view .LVU617
 2036 0000 10B5     		push	{r4, lr}
 2037              	.LCFI76:
 2038              		.cfi_def_cfa_offset 8
 2039              		.cfi_offset 4, -8
 2040              		.cfi_offset 14, -4
 2041 0002 88B0     		sub	sp, sp, #32
 2042              	.LCFI77:
 2043              		.cfi_def_cfa_offset 40
 2044 0004 0446     		mov	r4, r0
 526:Middlewares/ST/BlueNRG-MS/hci/hci_le.c ****   struct hci_request rq;
 2045              		.loc 1 526 3 is_stmt 1 view .LVU618
 527:Middlewares/ST/BlueNRG-MS/hci/hci_le.c ****   le_read_white_list_size_rp resp;
 2046              		.loc 1 527 3 view .LVU619
 528:Middlewares/ST/BlueNRG-MS/hci/hci_le.c ****   
 529:Middlewares/ST/BlueNRG-MS/hci/hci_le.c ****   BLUENRG_memset(&resp, 0, sizeof(resp));
 2047              		.loc 1 529 3 view .LVU620
 2048 0006 0021     		movs	r1, #0
 2049 0008 ADF80410 		strh	r1, [sp, #4]	@ movhi
 530:Middlewares/ST/BlueNRG-MS/hci/hci_le.c ****   
 531:Middlewares/ST/BlueNRG-MS/hci/hci_le.c ****   BLUENRG_memset(&rq, 0, sizeof(rq));
 2050              		.loc 1 531 3 view .LVU621
 2051 000c 0291     		str	r1, [sp, #8]
 2052 000e 0391     		str	r1, [sp, #12]
 2053 0010 0491     		str	r1, [sp, #16]
 2054 0012 0591     		str	r1, [sp, #20]
ARM GAS  /tmp/cc11VlkJ.s 			page 46


 2055 0014 0691     		str	r1, [sp, #24]
 2056 0016 0791     		str	r1, [sp, #28]
 532:Middlewares/ST/BlueNRG-MS/hci/hci_le.c ****   rq.ogf = OGF_LE_CTL;
 2057              		.loc 1 532 3 view .LVU622
 2058              		.loc 1 532 10 is_stmt 0 view .LVU623
 2059 0018 0823     		movs	r3, #8
 2060 001a ADF80830 		strh	r3, [sp, #8]	@ movhi
 533:Middlewares/ST/BlueNRG-MS/hci/hci_le.c ****   rq.ocf = OCF_LE_READ_WHITE_LIST_SIZE;
 2061              		.loc 1 533 3 is_stmt 1 view .LVU624
 2062              		.loc 1 533 10 is_stmt 0 view .LVU625
 2063 001e 0F23     		movs	r3, #15
 2064 0020 ADF80A30 		strh	r3, [sp, #10]	@ movhi
 534:Middlewares/ST/BlueNRG-MS/hci/hci_le.c ****   rq.rparam = &resp;
 2065              		.loc 1 534 3 is_stmt 1 view .LVU626
 2066              		.loc 1 534 13 is_stmt 0 view .LVU627
 2067 0024 01AB     		add	r3, sp, #4
 2068 0026 0693     		str	r3, [sp, #24]
 535:Middlewares/ST/BlueNRG-MS/hci/hci_le.c ****   rq.rlen = LE_READ_WHITE_LIST_SIZE_RP_SIZE;
 2069              		.loc 1 535 3 is_stmt 1 view .LVU628
 2070              		.loc 1 535 11 is_stmt 0 view .LVU629
 2071 0028 0223     		movs	r3, #2
 2072 002a 0793     		str	r3, [sp, #28]
 536:Middlewares/ST/BlueNRG-MS/hci/hci_le.c ****   
 537:Middlewares/ST/BlueNRG-MS/hci/hci_le.c ****   if (hci_send_req(&rq, FALSE) < 0){
 2073              		.loc 1 537 3 is_stmt 1 view .LVU630
 2074              		.loc 1 537 7 is_stmt 0 view .LVU631
 2075 002c 02A8     		add	r0, sp, #8
 2076              	.LVL84:
 2077              		.loc 1 537 7 view .LVU632
 2078 002e FFF7FEFF 		bl	hci_send_req
 2079              	.LVL85:
 2080              		.loc 1 537 6 view .LVU633
 2081 0032 0028     		cmp	r0, #0
 2082 0034 07DB     		blt	.L87
 538:Middlewares/ST/BlueNRG-MS/hci/hci_le.c ****     return BLE_STATUS_TIMEOUT;
 539:Middlewares/ST/BlueNRG-MS/hci/hci_le.c ****   }
 540:Middlewares/ST/BlueNRG-MS/hci/hci_le.c ****   
 541:Middlewares/ST/BlueNRG-MS/hci/hci_le.c ****   if (resp.status) {
 2083              		.loc 1 541 3 is_stmt 1 view .LVU634
 2084              		.loc 1 541 11 is_stmt 0 view .LVU635
 2085 0036 9DF80400 		ldrb	r0, [sp, #4]	@ zero_extendqisi2
 2086              		.loc 1 541 6 view .LVU636
 2087 003a 10B9     		cbnz	r0, .L84
 542:Middlewares/ST/BlueNRG-MS/hci/hci_le.c ****     return resp.status;
 543:Middlewares/ST/BlueNRG-MS/hci/hci_le.c ****   }
 544:Middlewares/ST/BlueNRG-MS/hci/hci_le.c ****   
 545:Middlewares/ST/BlueNRG-MS/hci/hci_le.c ****   *size = resp.size;
 2088              		.loc 1 545 3 is_stmt 1 view .LVU637
 2089              		.loc 1 545 15 is_stmt 0 view .LVU638
 2090 003c 9DF80530 		ldrb	r3, [sp, #5]	@ zero_extendqisi2
 2091              		.loc 1 545 9 view .LVU639
 2092 0040 2370     		strb	r3, [r4]
 546:Middlewares/ST/BlueNRG-MS/hci/hci_le.c ****   
 547:Middlewares/ST/BlueNRG-MS/hci/hci_le.c ****   return 0;
 2093              		.loc 1 547 3 is_stmt 1 view .LVU640
 2094              	.L84:
 548:Middlewares/ST/BlueNRG-MS/hci/hci_le.c **** }
ARM GAS  /tmp/cc11VlkJ.s 			page 47


 2095              		.loc 1 548 1 is_stmt 0 view .LVU641
 2096 0042 08B0     		add	sp, sp, #32
 2097              	.LCFI78:
 2098              		.cfi_remember_state
 2099              		.cfi_def_cfa_offset 8
 2100              		@ sp needed
 2101 0044 10BD     		pop	{r4, pc}
 2102              	.LVL86:
 2103              	.L87:
 2104              	.LCFI79:
 2105              		.cfi_restore_state
 538:Middlewares/ST/BlueNRG-MS/hci/hci_le.c ****   }
 2106              		.loc 1 538 12 view .LVU642
 2107 0046 FF20     		movs	r0, #255
 2108 0048 FBE7     		b	.L84
 2109              		.cfi_endproc
 2110              	.LFE311:
 2112              		.section	.text.hci_le_clear_white_list,"ax",%progbits
 2113              		.align	1
 2114              		.global	hci_le_clear_white_list
 2115              		.syntax unified
 2116              		.thumb
 2117              		.thumb_func
 2119              	hci_le_clear_white_list:
 2120              	.LFB312:
 549:Middlewares/ST/BlueNRG-MS/hci/hci_le.c **** 
 550:Middlewares/ST/BlueNRG-MS/hci/hci_le.c **** int hci_le_clear_white_list(void)
 551:Middlewares/ST/BlueNRG-MS/hci/hci_le.c **** {
 2121              		.loc 1 551 1 is_stmt 1 view -0
 2122              		.cfi_startproc
 2123              		@ args = 0, pretend = 0, frame = 32
 2124              		@ frame_needed = 0, uses_anonymous_args = 0
 2125 0000 00B5     		push	{lr}
 2126              	.LCFI80:
 2127              		.cfi_def_cfa_offset 4
 2128              		.cfi_offset 14, -4
 2129 0002 89B0     		sub	sp, sp, #36
 2130              	.LCFI81:
 2131              		.cfi_def_cfa_offset 40
 552:Middlewares/ST/BlueNRG-MS/hci/hci_le.c ****   struct hci_request rq;
 2132              		.loc 1 552 3 view .LVU644
 553:Middlewares/ST/BlueNRG-MS/hci/hci_le.c ****   uint8_t status;
 2133              		.loc 1 553 3 view .LVU645
 554:Middlewares/ST/BlueNRG-MS/hci/hci_le.c ****   
 555:Middlewares/ST/BlueNRG-MS/hci/hci_le.c ****   BLUENRG_memset(&rq, 0, sizeof(rq));
 2134              		.loc 1 555 3 view .LVU646
 2135 0004 0021     		movs	r1, #0
 2136 0006 0291     		str	r1, [sp, #8]
 2137 0008 0391     		str	r1, [sp, #12]
 2138 000a 0491     		str	r1, [sp, #16]
 2139 000c 0591     		str	r1, [sp, #20]
 2140 000e 0691     		str	r1, [sp, #24]
 2141 0010 0791     		str	r1, [sp, #28]
 556:Middlewares/ST/BlueNRG-MS/hci/hci_le.c ****   rq.ogf = OGF_LE_CTL;
 2142              		.loc 1 556 3 view .LVU647
 2143              		.loc 1 556 10 is_stmt 0 view .LVU648
 2144 0012 0823     		movs	r3, #8
ARM GAS  /tmp/cc11VlkJ.s 			page 48


 2145 0014 ADF80830 		strh	r3, [sp, #8]	@ movhi
 557:Middlewares/ST/BlueNRG-MS/hci/hci_le.c ****   rq.ocf = OCF_LE_CLEAR_WHITE_LIST;
 2146              		.loc 1 557 3 is_stmt 1 view .LVU649
 2147              		.loc 1 557 10 is_stmt 0 view .LVU650
 2148 0018 1023     		movs	r3, #16
 2149 001a ADF80A30 		strh	r3, [sp, #10]	@ movhi
 558:Middlewares/ST/BlueNRG-MS/hci/hci_le.c ****   rq.rparam = &status;
 2150              		.loc 1 558 3 is_stmt 1 view .LVU651
 2151              		.loc 1 558 13 is_stmt 0 view .LVU652
 2152 001e 0DF10703 		add	r3, sp, #7
 2153 0022 0693     		str	r3, [sp, #24]
 559:Middlewares/ST/BlueNRG-MS/hci/hci_le.c ****   rq.rlen = 1;
 2154              		.loc 1 559 3 is_stmt 1 view .LVU653
 2155              		.loc 1 559 11 is_stmt 0 view .LVU654
 2156 0024 0123     		movs	r3, #1
 2157 0026 0793     		str	r3, [sp, #28]
 560:Middlewares/ST/BlueNRG-MS/hci/hci_le.c ****   
 561:Middlewares/ST/BlueNRG-MS/hci/hci_le.c ****   if (hci_send_req(&rq, FALSE) < 0){
 2158              		.loc 1 561 3 is_stmt 1 view .LVU655
 2159              		.loc 1 561 7 is_stmt 0 view .LVU656
 2160 0028 02A8     		add	r0, sp, #8
 2161 002a FFF7FEFF 		bl	hci_send_req
 2162              	.LVL87:
 2163              		.loc 1 561 6 view .LVU657
 2164 002e 0028     		cmp	r0, #0
 2165 0030 04DB     		blt	.L91
 562:Middlewares/ST/BlueNRG-MS/hci/hci_le.c ****     return BLE_STATUS_TIMEOUT;
 563:Middlewares/ST/BlueNRG-MS/hci/hci_le.c ****   }
 564:Middlewares/ST/BlueNRG-MS/hci/hci_le.c ****   
 565:Middlewares/ST/BlueNRG-MS/hci/hci_le.c ****   return status;
 2166              		.loc 1 565 3 is_stmt 1 view .LVU658
 2167              		.loc 1 565 10 is_stmt 0 view .LVU659
 2168 0032 9DF80700 		ldrb	r0, [sp, #7]	@ zero_extendqisi2
 2169              	.L89:
 566:Middlewares/ST/BlueNRG-MS/hci/hci_le.c **** }
 2170              		.loc 1 566 1 view .LVU660
 2171 0036 09B0     		add	sp, sp, #36
 2172              	.LCFI82:
 2173              		.cfi_remember_state
 2174              		.cfi_def_cfa_offset 4
 2175              		@ sp needed
 2176 0038 5DF804FB 		ldr	pc, [sp], #4
 2177              	.L91:
 2178              	.LCFI83:
 2179              		.cfi_restore_state
 562:Middlewares/ST/BlueNRG-MS/hci/hci_le.c ****     return BLE_STATUS_TIMEOUT;
 2180              		.loc 1 562 12 view .LVU661
 2181 003c FF20     		movs	r0, #255
 2182 003e FAE7     		b	.L89
 2183              		.cfi_endproc
 2184              	.LFE312:
 2186              		.section	.text.hci_le_add_device_to_white_list,"ax",%progbits
 2187              		.align	1
 2188              		.global	hci_le_add_device_to_white_list
 2189              		.syntax unified
 2190              		.thumb
 2191              		.thumb_func
ARM GAS  /tmp/cc11VlkJ.s 			page 49


 2193              	hci_le_add_device_to_white_list:
 2194              	.LVL88:
 2195              	.LFB313:
 567:Middlewares/ST/BlueNRG-MS/hci/hci_le.c **** 
 568:Middlewares/ST/BlueNRG-MS/hci/hci_le.c **** int hci_le_add_device_to_white_list(uint8_t	bdaddr_type, tBDAddr bdaddr)
 569:Middlewares/ST/BlueNRG-MS/hci/hci_le.c **** {
 2196              		.loc 1 569 1 is_stmt 1 view -0
 2197              		.cfi_startproc
 2198              		@ args = 0, pretend = 0, frame = 40
 2199              		@ frame_needed = 0, uses_anonymous_args = 0
 2200              		.loc 1 569 1 is_stmt 0 view .LVU663
 2201 0000 00B5     		push	{lr}
 2202              	.LCFI84:
 2203              		.cfi_def_cfa_offset 4
 2204              		.cfi_offset 14, -4
 2205 0002 8BB0     		sub	sp, sp, #44
 2206              	.LCFI85:
 2207              		.cfi_def_cfa_offset 48
 570:Middlewares/ST/BlueNRG-MS/hci/hci_le.c ****   struct hci_request rq;
 2208              		.loc 1 570 3 is_stmt 1 view .LVU664
 571:Middlewares/ST/BlueNRG-MS/hci/hci_le.c ****   le_add_device_to_white_list_cp params;
 2209              		.loc 1 571 3 view .LVU665
 572:Middlewares/ST/BlueNRG-MS/hci/hci_le.c ****   uint8_t status;
 2210              		.loc 1 572 3 view .LVU666
 573:Middlewares/ST/BlueNRG-MS/hci/hci_le.c ****   
 574:Middlewares/ST/BlueNRG-MS/hci/hci_le.c ****   params.bdaddr_type = bdaddr_type;
 2211              		.loc 1 574 3 view .LVU667
 2212              		.loc 1 574 22 is_stmt 0 view .LVU668
 2213 0004 8DF80800 		strb	r0, [sp, #8]
 575:Middlewares/ST/BlueNRG-MS/hci/hci_le.c ****   BLUENRG_memcpy(params.bdaddr, bdaddr, 6);
 2214              		.loc 1 575 3 is_stmt 1 view .LVU669
 2215 0008 0B68     		ldr	r3, [r1]	@ unaligned
 2216 000a CDF80930 		str	r3, [sp, #9]	@ unaligned
 2217 000e 8B88     		ldrh	r3, [r1, #4]	@ unaligned
 2218 0010 ADF80D30 		strh	r3, [sp, #13]	@ unaligned
 576:Middlewares/ST/BlueNRG-MS/hci/hci_le.c ****   
 577:Middlewares/ST/BlueNRG-MS/hci/hci_le.c ****   BLUENRG_memset(&rq, 0, sizeof(rq));
 2219              		.loc 1 577 3 view .LVU670
 2220 0014 0021     		movs	r1, #0
 2221              	.LVL89:
 2222              		.loc 1 577 3 is_stmt 0 view .LVU671
 2223 0016 0491     		str	r1, [sp, #16]
 2224 0018 0591     		str	r1, [sp, #20]
 2225 001a 0691     		str	r1, [sp, #24]
 2226 001c 0791     		str	r1, [sp, #28]
 2227 001e 0891     		str	r1, [sp, #32]
 2228 0020 0991     		str	r1, [sp, #36]
 578:Middlewares/ST/BlueNRG-MS/hci/hci_le.c ****   rq.ogf = OGF_LE_CTL;
 2229              		.loc 1 578 3 is_stmt 1 view .LVU672
 2230              		.loc 1 578 10 is_stmt 0 view .LVU673
 2231 0022 0823     		movs	r3, #8
 2232 0024 ADF81030 		strh	r3, [sp, #16]	@ movhi
 579:Middlewares/ST/BlueNRG-MS/hci/hci_le.c ****   rq.ocf = OCF_LE_ADD_DEVICE_TO_WHITE_LIST;
 2233              		.loc 1 579 3 is_stmt 1 view .LVU674
 2234              		.loc 1 579 10 is_stmt 0 view .LVU675
 2235 0028 1123     		movs	r3, #17
 2236 002a ADF81230 		strh	r3, [sp, #18]	@ movhi
ARM GAS  /tmp/cc11VlkJ.s 			page 50


 580:Middlewares/ST/BlueNRG-MS/hci/hci_le.c ****   rq.cparam = &params;
 2237              		.loc 1 580 3 is_stmt 1 view .LVU676
 2238              		.loc 1 580 13 is_stmt 0 view .LVU677
 2239 002e 02AB     		add	r3, sp, #8
 2240 0030 0693     		str	r3, [sp, #24]
 581:Middlewares/ST/BlueNRG-MS/hci/hci_le.c ****   rq.clen = LE_ADD_DEVICE_TO_WHITE_LIST_CP_SIZE;
 2241              		.loc 1 581 3 is_stmt 1 view .LVU678
 2242              		.loc 1 581 11 is_stmt 0 view .LVU679
 2243 0032 0723     		movs	r3, #7
 2244 0034 0793     		str	r3, [sp, #28]
 582:Middlewares/ST/BlueNRG-MS/hci/hci_le.c ****   rq.rparam = &status;
 2245              		.loc 1 582 3 is_stmt 1 view .LVU680
 2246              		.loc 1 582 13 is_stmt 0 view .LVU681
 2247 0036 6B44     		add	r3, sp, r3
 2248 0038 0893     		str	r3, [sp, #32]
 583:Middlewares/ST/BlueNRG-MS/hci/hci_le.c ****   rq.rlen = 1;
 2249              		.loc 1 583 3 is_stmt 1 view .LVU682
 2250              		.loc 1 583 11 is_stmt 0 view .LVU683
 2251 003a 0123     		movs	r3, #1
 2252 003c 0993     		str	r3, [sp, #36]
 584:Middlewares/ST/BlueNRG-MS/hci/hci_le.c ****   
 585:Middlewares/ST/BlueNRG-MS/hci/hci_le.c ****   if (hci_send_req(&rq, FALSE) < 0){
 2253              		.loc 1 585 3 is_stmt 1 view .LVU684
 2254              		.loc 1 585 7 is_stmt 0 view .LVU685
 2255 003e 04A8     		add	r0, sp, #16
 2256              	.LVL90:
 2257              		.loc 1 585 7 view .LVU686
 2258 0040 FFF7FEFF 		bl	hci_send_req
 2259              	.LVL91:
 2260              		.loc 1 585 6 view .LVU687
 2261 0044 0028     		cmp	r0, #0
 2262 0046 04DB     		blt	.L95
 586:Middlewares/ST/BlueNRG-MS/hci/hci_le.c ****     return BLE_STATUS_TIMEOUT;
 587:Middlewares/ST/BlueNRG-MS/hci/hci_le.c ****   }
 588:Middlewares/ST/BlueNRG-MS/hci/hci_le.c ****   
 589:Middlewares/ST/BlueNRG-MS/hci/hci_le.c ****   return status;
 2263              		.loc 1 589 3 is_stmt 1 view .LVU688
 2264              		.loc 1 589 10 is_stmt 0 view .LVU689
 2265 0048 9DF80700 		ldrb	r0, [sp, #7]	@ zero_extendqisi2
 2266              	.L93:
 590:Middlewares/ST/BlueNRG-MS/hci/hci_le.c **** }
 2267              		.loc 1 590 1 view .LVU690
 2268 004c 0BB0     		add	sp, sp, #44
 2269              	.LCFI86:
 2270              		.cfi_remember_state
 2271              		.cfi_def_cfa_offset 4
 2272              		@ sp needed
 2273 004e 5DF804FB 		ldr	pc, [sp], #4
 2274              	.L95:
 2275              	.LCFI87:
 2276              		.cfi_restore_state
 586:Middlewares/ST/BlueNRG-MS/hci/hci_le.c ****     return BLE_STATUS_TIMEOUT;
 2277              		.loc 1 586 12 view .LVU691
 2278 0052 FF20     		movs	r0, #255
 2279 0054 FAE7     		b	.L93
 2280              		.cfi_endproc
 2281              	.LFE313:
ARM GAS  /tmp/cc11VlkJ.s 			page 51


 2283              		.section	.text.hci_le_remove_device_from_white_list,"ax",%progbits
 2284              		.align	1
 2285              		.global	hci_le_remove_device_from_white_list
 2286              		.syntax unified
 2287              		.thumb
 2288              		.thumb_func
 2290              	hci_le_remove_device_from_white_list:
 2291              	.LVL92:
 2292              	.LFB314:
 591:Middlewares/ST/BlueNRG-MS/hci/hci_le.c **** 
 592:Middlewares/ST/BlueNRG-MS/hci/hci_le.c **** int hci_le_remove_device_from_white_list(uint8_t bdaddr_type, tBDAddr bdaddr)
 593:Middlewares/ST/BlueNRG-MS/hci/hci_le.c **** {
 2293              		.loc 1 593 1 is_stmt 1 view -0
 2294              		.cfi_startproc
 2295              		@ args = 0, pretend = 0, frame = 40
 2296              		@ frame_needed = 0, uses_anonymous_args = 0
 2297              		.loc 1 593 1 is_stmt 0 view .LVU693
 2298 0000 00B5     		push	{lr}
 2299              	.LCFI88:
 2300              		.cfi_def_cfa_offset 4
 2301              		.cfi_offset 14, -4
 2302 0002 8BB0     		sub	sp, sp, #44
 2303              	.LCFI89:
 2304              		.cfi_def_cfa_offset 48
 594:Middlewares/ST/BlueNRG-MS/hci/hci_le.c ****   struct hci_request rq;
 2305              		.loc 1 594 3 is_stmt 1 view .LVU694
 595:Middlewares/ST/BlueNRG-MS/hci/hci_le.c ****   le_remove_device_from_white_list_cp params;
 2306              		.loc 1 595 3 view .LVU695
 596:Middlewares/ST/BlueNRG-MS/hci/hci_le.c ****   uint8_t status;
 2307              		.loc 1 596 3 view .LVU696
 597:Middlewares/ST/BlueNRG-MS/hci/hci_le.c ****   
 598:Middlewares/ST/BlueNRG-MS/hci/hci_le.c ****   params.bdaddr_type = bdaddr_type;
 2308              		.loc 1 598 3 view .LVU697
 2309              		.loc 1 598 22 is_stmt 0 view .LVU698
 2310 0004 8DF80800 		strb	r0, [sp, #8]
 599:Middlewares/ST/BlueNRG-MS/hci/hci_le.c ****   BLUENRG_memcpy(params.bdaddr, bdaddr, 6);
 2311              		.loc 1 599 3 is_stmt 1 view .LVU699
 2312 0008 0B68     		ldr	r3, [r1]	@ unaligned
 2313 000a CDF80930 		str	r3, [sp, #9]	@ unaligned
 2314 000e 8B88     		ldrh	r3, [r1, #4]	@ unaligned
 2315 0010 ADF80D30 		strh	r3, [sp, #13]	@ unaligned
 600:Middlewares/ST/BlueNRG-MS/hci/hci_le.c ****   
 601:Middlewares/ST/BlueNRG-MS/hci/hci_le.c ****   BLUENRG_memset(&rq, 0, sizeof(rq));
 2316              		.loc 1 601 3 view .LVU700
 2317 0014 0021     		movs	r1, #0
 2318              	.LVL93:
 2319              		.loc 1 601 3 is_stmt 0 view .LVU701
 2320 0016 0491     		str	r1, [sp, #16]
 2321 0018 0591     		str	r1, [sp, #20]
 2322 001a 0691     		str	r1, [sp, #24]
 2323 001c 0791     		str	r1, [sp, #28]
 2324 001e 0891     		str	r1, [sp, #32]
 2325 0020 0991     		str	r1, [sp, #36]
 602:Middlewares/ST/BlueNRG-MS/hci/hci_le.c ****   rq.ogf = OGF_LE_CTL;
 2326              		.loc 1 602 3 is_stmt 1 view .LVU702
 2327              		.loc 1 602 10 is_stmt 0 view .LVU703
 2328 0022 0823     		movs	r3, #8
ARM GAS  /tmp/cc11VlkJ.s 			page 52


 2329 0024 ADF81030 		strh	r3, [sp, #16]	@ movhi
 603:Middlewares/ST/BlueNRG-MS/hci/hci_le.c ****   rq.ocf = OCF_LE_REMOVE_DEVICE_FROM_WHITE_LIST;
 2330              		.loc 1 603 3 is_stmt 1 view .LVU704
 2331              		.loc 1 603 10 is_stmt 0 view .LVU705
 2332 0028 1223     		movs	r3, #18
 2333 002a ADF81230 		strh	r3, [sp, #18]	@ movhi
 604:Middlewares/ST/BlueNRG-MS/hci/hci_le.c ****   rq.cparam = &params;
 2334              		.loc 1 604 3 is_stmt 1 view .LVU706
 2335              		.loc 1 604 13 is_stmt 0 view .LVU707
 2336 002e 02AB     		add	r3, sp, #8
 2337 0030 0693     		str	r3, [sp, #24]
 605:Middlewares/ST/BlueNRG-MS/hci/hci_le.c ****   rq.clen = LE_REMOVE_DEVICE_FROM_WHITE_LIST_CP_SIZE;
 2338              		.loc 1 605 3 is_stmt 1 view .LVU708
 2339              		.loc 1 605 11 is_stmt 0 view .LVU709
 2340 0032 0723     		movs	r3, #7
 2341 0034 0793     		str	r3, [sp, #28]
 606:Middlewares/ST/BlueNRG-MS/hci/hci_le.c ****   rq.rparam = &status;
 2342              		.loc 1 606 3 is_stmt 1 view .LVU710
 2343              		.loc 1 606 13 is_stmt 0 view .LVU711
 2344 0036 6B44     		add	r3, sp, r3
 2345 0038 0893     		str	r3, [sp, #32]
 607:Middlewares/ST/BlueNRG-MS/hci/hci_le.c ****   rq.rlen = 1;
 2346              		.loc 1 607 3 is_stmt 1 view .LVU712
 2347              		.loc 1 607 11 is_stmt 0 view .LVU713
 2348 003a 0123     		movs	r3, #1
 2349 003c 0993     		str	r3, [sp, #36]
 608:Middlewares/ST/BlueNRG-MS/hci/hci_le.c ****   
 609:Middlewares/ST/BlueNRG-MS/hci/hci_le.c ****   if (hci_send_req(&rq, FALSE) < 0){
 2350              		.loc 1 609 3 is_stmt 1 view .LVU714
 2351              		.loc 1 609 7 is_stmt 0 view .LVU715
 2352 003e 04A8     		add	r0, sp, #16
 2353              	.LVL94:
 2354              		.loc 1 609 7 view .LVU716
 2355 0040 FFF7FEFF 		bl	hci_send_req
 2356              	.LVL95:
 2357              		.loc 1 609 6 view .LVU717
 2358 0044 0028     		cmp	r0, #0
 2359 0046 04DB     		blt	.L99
 610:Middlewares/ST/BlueNRG-MS/hci/hci_le.c ****     return BLE_STATUS_TIMEOUT;
 611:Middlewares/ST/BlueNRG-MS/hci/hci_le.c ****   }
 612:Middlewares/ST/BlueNRG-MS/hci/hci_le.c ****   
 613:Middlewares/ST/BlueNRG-MS/hci/hci_le.c ****   return status;
 2360              		.loc 1 613 3 is_stmt 1 view .LVU718
 2361              		.loc 1 613 10 is_stmt 0 view .LVU719
 2362 0048 9DF80700 		ldrb	r0, [sp, #7]	@ zero_extendqisi2
 2363              	.L97:
 614:Middlewares/ST/BlueNRG-MS/hci/hci_le.c **** }
 2364              		.loc 1 614 1 view .LVU720
 2365 004c 0BB0     		add	sp, sp, #44
 2366              	.LCFI90:
 2367              		.cfi_remember_state
 2368              		.cfi_def_cfa_offset 4
 2369              		@ sp needed
 2370 004e 5DF804FB 		ldr	pc, [sp], #4
 2371              	.L99:
 2372              	.LCFI91:
 2373              		.cfi_restore_state
ARM GAS  /tmp/cc11VlkJ.s 			page 53


 610:Middlewares/ST/BlueNRG-MS/hci/hci_le.c ****     return BLE_STATUS_TIMEOUT;
 2374              		.loc 1 610 12 view .LVU721
 2375 0052 FF20     		movs	r0, #255
 2376 0054 FAE7     		b	.L97
 2377              		.cfi_endproc
 2378              	.LFE314:
 2380              		.section	.text.hci_read_transmit_power_level,"ax",%progbits
 2381              		.align	1
 2382              		.global	hci_read_transmit_power_level
 2383              		.syntax unified
 2384              		.thumb
 2385              		.thumb_func
 2387              	hci_read_transmit_power_level:
 2388              	.LVL96:
 2389              	.LFB315:
 615:Middlewares/ST/BlueNRG-MS/hci/hci_le.c **** 
 616:Middlewares/ST/BlueNRG-MS/hci/hci_le.c **** int hci_read_transmit_power_level(uint16_t *conn_handle, uint8_t type, int8_t * tx_level)
 617:Middlewares/ST/BlueNRG-MS/hci/hci_le.c **** {
 2390              		.loc 1 617 1 is_stmt 1 view -0
 2391              		.cfi_startproc
 2392              		@ args = 0, pretend = 0, frame = 32
 2393              		@ frame_needed = 0, uses_anonymous_args = 0
 2394              		.loc 1 617 1 is_stmt 0 view .LVU723
 2395 0000 30B5     		push	{r4, r5, lr}
 2396              	.LCFI92:
 2397              		.cfi_def_cfa_offset 12
 2398              		.cfi_offset 4, -12
 2399              		.cfi_offset 5, -8
 2400              		.cfi_offset 14, -4
 2401 0002 89B0     		sub	sp, sp, #36
 2402              	.LCFI93:
 2403              		.cfi_def_cfa_offset 48
 2404 0004 0446     		mov	r4, r0
 2405 0006 1546     		mov	r5, r2
 618:Middlewares/ST/BlueNRG-MS/hci/hci_le.c ****   struct hci_request rq;
 2406              		.loc 1 618 3 is_stmt 1 view .LVU724
 619:Middlewares/ST/BlueNRG-MS/hci/hci_le.c ****   read_transmit_power_level_cp params;
 2407              		.loc 1 619 3 view .LVU725
 620:Middlewares/ST/BlueNRG-MS/hci/hci_le.c ****   read_transmit_power_level_rp resp;
 2408              		.loc 1 620 3 view .LVU726
 621:Middlewares/ST/BlueNRG-MS/hci/hci_le.c ****   
 622:Middlewares/ST/BlueNRG-MS/hci/hci_le.c ****   BLUENRG_memset(&resp, 0, sizeof(resp));
 2409              		.loc 1 622 3 view .LVU727
 2410 0008 0023     		movs	r3, #0
 2411 000a 0093     		str	r3, [sp]
 623:Middlewares/ST/BlueNRG-MS/hci/hci_le.c ****   
 624:Middlewares/ST/BlueNRG-MS/hci/hci_le.c ****   params.handle = *conn_handle;
 2412              		.loc 1 624 3 view .LVU728
 2413              		.loc 1 624 19 is_stmt 0 view .LVU729
 2414 000c 0288     		ldrh	r2, [r0]
 2415              	.LVL97:
 2416              		.loc 1 624 17 view .LVU730
 2417 000e ADF80420 		strh	r2, [sp, #4]	@ movhi
 625:Middlewares/ST/BlueNRG-MS/hci/hci_le.c ****   params.type = type;
 2418              		.loc 1 625 3 is_stmt 1 view .LVU731
 2419              		.loc 1 625 15 is_stmt 0 view .LVU732
 2420 0012 8DF80610 		strb	r1, [sp, #6]
ARM GAS  /tmp/cc11VlkJ.s 			page 54


 626:Middlewares/ST/BlueNRG-MS/hci/hci_le.c ****   
 627:Middlewares/ST/BlueNRG-MS/hci/hci_le.c ****   BLUENRG_memset(&rq, 0, sizeof(rq));
 2421              		.loc 1 627 3 is_stmt 1 view .LVU733
 2422 0016 0293     		str	r3, [sp, #8]
 2423 0018 0393     		str	r3, [sp, #12]
 2424 001a 0493     		str	r3, [sp, #16]
 2425 001c 0593     		str	r3, [sp, #20]
 2426 001e 0693     		str	r3, [sp, #24]
 2427 0020 0793     		str	r3, [sp, #28]
 628:Middlewares/ST/BlueNRG-MS/hci/hci_le.c ****   rq.ogf = OGF_HOST_CTL;
 2428              		.loc 1 628 3 view .LVU734
 2429              		.loc 1 628 10 is_stmt 0 view .LVU735
 2430 0022 0322     		movs	r2, #3
 2431 0024 ADF80820 		strh	r2, [sp, #8]	@ movhi
 629:Middlewares/ST/BlueNRG-MS/hci/hci_le.c ****   rq.ocf = OCF_READ_TRANSMIT_POWER_LEVEL;
 2432              		.loc 1 629 3 is_stmt 1 view .LVU736
 2433              		.loc 1 629 10 is_stmt 0 view .LVU737
 2434 0028 2D21     		movs	r1, #45
 2435              	.LVL98:
 2436              		.loc 1 629 10 view .LVU738
 2437 002a ADF80A10 		strh	r1, [sp, #10]	@ movhi
 630:Middlewares/ST/BlueNRG-MS/hci/hci_le.c ****   rq.cparam = &params;
 2438              		.loc 1 630 3 is_stmt 1 view .LVU739
 2439              		.loc 1 630 13 is_stmt 0 view .LVU740
 2440 002e 01A9     		add	r1, sp, #4
 2441 0030 0491     		str	r1, [sp, #16]
 631:Middlewares/ST/BlueNRG-MS/hci/hci_le.c ****   rq.clen = READ_TRANSMIT_POWER_LEVEL_CP_SIZE;
 2442              		.loc 1 631 3 is_stmt 1 view .LVU741
 2443              		.loc 1 631 11 is_stmt 0 view .LVU742
 2444 0032 0592     		str	r2, [sp, #20]
 632:Middlewares/ST/BlueNRG-MS/hci/hci_le.c ****   rq.rparam = &resp;
 2445              		.loc 1 632 3 is_stmt 1 view .LVU743
 2446              		.loc 1 632 13 is_stmt 0 view .LVU744
 2447 0034 CDF818D0 		str	sp, [sp, #24]
 633:Middlewares/ST/BlueNRG-MS/hci/hci_le.c ****   rq.rlen = READ_TRANSMIT_POWER_LEVEL_RP_SIZE;
 2448              		.loc 1 633 3 is_stmt 1 view .LVU745
 2449              		.loc 1 633 11 is_stmt 0 view .LVU746
 2450 0038 0422     		movs	r2, #4
 2451 003a 0792     		str	r2, [sp, #28]
 634:Middlewares/ST/BlueNRG-MS/hci/hci_le.c ****   
 635:Middlewares/ST/BlueNRG-MS/hci/hci_le.c ****   if (hci_send_req(&rq, FALSE) < 0){
 2452              		.loc 1 635 3 is_stmt 1 view .LVU747
 2453              		.loc 1 635 7 is_stmt 0 view .LVU748
 2454 003c 1946     		mov	r1, r3
 2455 003e 02A8     		add	r0, sp, #8
 2456              	.LVL99:
 2457              		.loc 1 635 7 view .LVU749
 2458 0040 FFF7FEFF 		bl	hci_send_req
 2459              	.LVL100:
 2460              		.loc 1 635 6 view .LVU750
 2461 0044 0028     		cmp	r0, #0
 2462 0046 0ADB     		blt	.L104
 636:Middlewares/ST/BlueNRG-MS/hci/hci_le.c ****     return BLE_STATUS_TIMEOUT;
 637:Middlewares/ST/BlueNRG-MS/hci/hci_le.c ****   }
 638:Middlewares/ST/BlueNRG-MS/hci/hci_le.c ****   
 639:Middlewares/ST/BlueNRG-MS/hci/hci_le.c ****   if (resp.status) {
 2463              		.loc 1 639 3 is_stmt 1 view .LVU751
ARM GAS  /tmp/cc11VlkJ.s 			page 55


 2464              		.loc 1 639 11 is_stmt 0 view .LVU752
 2465 0048 9DF80000 		ldrb	r0, [sp]	@ zero_extendqisi2
 2466              		.loc 1 639 6 view .LVU753
 2467 004c 28B9     		cbnz	r0, .L101
 640:Middlewares/ST/BlueNRG-MS/hci/hci_le.c ****     return resp.status;
 641:Middlewares/ST/BlueNRG-MS/hci/hci_le.c ****   }
 642:Middlewares/ST/BlueNRG-MS/hci/hci_le.c ****   
 643:Middlewares/ST/BlueNRG-MS/hci/hci_le.c ****   *conn_handle = resp.handle;
 2468              		.loc 1 643 3 is_stmt 1 view .LVU754
 2469              		.loc 1 643 22 is_stmt 0 view .LVU755
 2470 004e BDF80130 		ldrh	r3, [sp, #1]	@ unaligned
 2471              		.loc 1 643 16 view .LVU756
 2472 0052 2380     		strh	r3, [r4]	@ movhi
 644:Middlewares/ST/BlueNRG-MS/hci/hci_le.c ****   *tx_level = resp.level;
 2473              		.loc 1 644 3 is_stmt 1 view .LVU757
 2474              		.loc 1 644 19 is_stmt 0 view .LVU758
 2475 0054 9DF90330 		ldrsb	r3, [sp, #3]
 2476              		.loc 1 644 13 view .LVU759
 2477 0058 2B70     		strb	r3, [r5]
 645:Middlewares/ST/BlueNRG-MS/hci/hci_le.c ****   
 646:Middlewares/ST/BlueNRG-MS/hci/hci_le.c ****   return 0;
 2478              		.loc 1 646 3 is_stmt 1 view .LVU760
 2479              	.L101:
 647:Middlewares/ST/BlueNRG-MS/hci/hci_le.c **** }
 2480              		.loc 1 647 1 is_stmt 0 view .LVU761
 2481 005a 09B0     		add	sp, sp, #36
 2482              	.LCFI94:
 2483              		.cfi_remember_state
 2484              		.cfi_def_cfa_offset 12
 2485              		@ sp needed
 2486 005c 30BD     		pop	{r4, r5, pc}
 2487              	.LVL101:
 2488              	.L104:
 2489              	.LCFI95:
 2490              		.cfi_restore_state
 636:Middlewares/ST/BlueNRG-MS/hci/hci_le.c ****   }
 2491              		.loc 1 636 12 view .LVU762
 2492 005e FF20     		movs	r0, #255
 2493 0060 FBE7     		b	.L101
 2494              		.cfi_endproc
 2495              	.LFE315:
 2497              		.section	.text.hci_read_rssi,"ax",%progbits
 2498              		.align	1
 2499              		.global	hci_read_rssi
 2500              		.syntax unified
 2501              		.thumb
 2502              		.thumb_func
 2504              	hci_read_rssi:
 2505              	.LVL102:
 2506              	.LFB316:
 648:Middlewares/ST/BlueNRG-MS/hci/hci_le.c **** 
 649:Middlewares/ST/BlueNRG-MS/hci/hci_le.c **** int hci_read_rssi(uint16_t *conn_handle, int8_t * rssi)
 650:Middlewares/ST/BlueNRG-MS/hci/hci_le.c **** {
 2507              		.loc 1 650 1 is_stmt 1 view -0
 2508              		.cfi_startproc
 2509              		@ args = 0, pretend = 0, frame = 32
 2510              		@ frame_needed = 0, uses_anonymous_args = 0
ARM GAS  /tmp/cc11VlkJ.s 			page 56


 2511              		.loc 1 650 1 is_stmt 0 view .LVU764
 2512 0000 30B5     		push	{r4, r5, lr}
 2513              	.LCFI96:
 2514              		.cfi_def_cfa_offset 12
 2515              		.cfi_offset 4, -12
 2516              		.cfi_offset 5, -8
 2517              		.cfi_offset 14, -4
 2518 0002 89B0     		sub	sp, sp, #36
 2519              	.LCFI97:
 2520              		.cfi_def_cfa_offset 48
 2521 0004 0446     		mov	r4, r0
 2522 0006 0D46     		mov	r5, r1
 651:Middlewares/ST/BlueNRG-MS/hci/hci_le.c ****   struct hci_request rq;
 2523              		.loc 1 651 3 is_stmt 1 view .LVU765
 652:Middlewares/ST/BlueNRG-MS/hci/hci_le.c ****   read_rssi_cp params;
 2524              		.loc 1 652 3 view .LVU766
 653:Middlewares/ST/BlueNRG-MS/hci/hci_le.c ****   read_rssi_rp resp;
 2525              		.loc 1 653 3 view .LVU767
 654:Middlewares/ST/BlueNRG-MS/hci/hci_le.c ****   
 655:Middlewares/ST/BlueNRG-MS/hci/hci_le.c ****   BLUENRG_memset(&resp, 0, sizeof(resp));
 2526              		.loc 1 655 3 view .LVU768
 2527 0008 0021     		movs	r1, #0
 2528              	.LVL103:
 2529              		.loc 1 655 3 is_stmt 0 view .LVU769
 2530 000a 0091     		str	r1, [sp]
 656:Middlewares/ST/BlueNRG-MS/hci/hci_le.c ****   
 657:Middlewares/ST/BlueNRG-MS/hci/hci_le.c ****   params.handle = *conn_handle;
 2531              		.loc 1 657 3 is_stmt 1 view .LVU770
 2532              		.loc 1 657 19 is_stmt 0 view .LVU771
 2533 000c 0388     		ldrh	r3, [r0]
 2534              		.loc 1 657 17 view .LVU772
 2535 000e ADF80430 		strh	r3, [sp, #4]	@ movhi
 658:Middlewares/ST/BlueNRG-MS/hci/hci_le.c ****   
 659:Middlewares/ST/BlueNRG-MS/hci/hci_le.c ****   BLUENRG_memset(&rq, 0, sizeof(rq));
 2536              		.loc 1 659 3 is_stmt 1 view .LVU773
 2537 0012 0291     		str	r1, [sp, #8]
 2538 0014 0391     		str	r1, [sp, #12]
 2539 0016 0491     		str	r1, [sp, #16]
 2540 0018 0591     		str	r1, [sp, #20]
 2541 001a 0691     		str	r1, [sp, #24]
 2542 001c 0791     		str	r1, [sp, #28]
 660:Middlewares/ST/BlueNRG-MS/hci/hci_le.c ****   rq.ogf = OGF_STATUS_PARAM;
 2543              		.loc 1 660 3 view .LVU774
 2544              		.loc 1 660 10 is_stmt 0 view .LVU775
 2545 001e 0523     		movs	r3, #5
 2546 0020 ADF80830 		strh	r3, [sp, #8]	@ movhi
 661:Middlewares/ST/BlueNRG-MS/hci/hci_le.c ****   rq.ocf = OCF_READ_RSSI;
 2547              		.loc 1 661 3 is_stmt 1 view .LVU776
 2548              		.loc 1 661 10 is_stmt 0 view .LVU777
 2549 0024 ADF80A30 		strh	r3, [sp, #10]	@ movhi
 662:Middlewares/ST/BlueNRG-MS/hci/hci_le.c ****   rq.cparam = &params;
 2550              		.loc 1 662 3 is_stmt 1 view .LVU778
 2551              		.loc 1 662 13 is_stmt 0 view .LVU779
 2552 0028 01AB     		add	r3, sp, #4
 2553 002a 0493     		str	r3, [sp, #16]
 663:Middlewares/ST/BlueNRG-MS/hci/hci_le.c ****   rq.clen = READ_RSSI_CP_SIZE;
 2554              		.loc 1 663 3 is_stmt 1 view .LVU780
ARM GAS  /tmp/cc11VlkJ.s 			page 57


 2555              		.loc 1 663 11 is_stmt 0 view .LVU781
 2556 002c 0223     		movs	r3, #2
 2557 002e 0593     		str	r3, [sp, #20]
 664:Middlewares/ST/BlueNRG-MS/hci/hci_le.c ****   rq.rparam = &resp;
 2558              		.loc 1 664 3 is_stmt 1 view .LVU782
 2559              		.loc 1 664 13 is_stmt 0 view .LVU783
 2560 0030 CDF818D0 		str	sp, [sp, #24]
 665:Middlewares/ST/BlueNRG-MS/hci/hci_le.c ****   rq.rlen = READ_RSSI_RP_SIZE;
 2561              		.loc 1 665 3 is_stmt 1 view .LVU784
 2562              		.loc 1 665 11 is_stmt 0 view .LVU785
 2563 0034 0423     		movs	r3, #4
 2564 0036 0793     		str	r3, [sp, #28]
 666:Middlewares/ST/BlueNRG-MS/hci/hci_le.c ****   
 667:Middlewares/ST/BlueNRG-MS/hci/hci_le.c ****   if (hci_send_req(&rq, FALSE) < 0){
 2565              		.loc 1 667 3 is_stmt 1 view .LVU786
 2566              		.loc 1 667 7 is_stmt 0 view .LVU787
 2567 0038 02A8     		add	r0, sp, #8
 2568              	.LVL104:
 2569              		.loc 1 667 7 view .LVU788
 2570 003a FFF7FEFF 		bl	hci_send_req
 2571              	.LVL105:
 2572              		.loc 1 667 6 view .LVU789
 2573 003e 0028     		cmp	r0, #0
 2574 0040 0ADB     		blt	.L109
 668:Middlewares/ST/BlueNRG-MS/hci/hci_le.c ****     return BLE_STATUS_TIMEOUT;
 669:Middlewares/ST/BlueNRG-MS/hci/hci_le.c ****   }
 670:Middlewares/ST/BlueNRG-MS/hci/hci_le.c ****   
 671:Middlewares/ST/BlueNRG-MS/hci/hci_le.c ****   if (resp.status) {
 2575              		.loc 1 671 3 is_stmt 1 view .LVU790
 2576              		.loc 1 671 11 is_stmt 0 view .LVU791
 2577 0042 9DF80000 		ldrb	r0, [sp]	@ zero_extendqisi2
 2578              		.loc 1 671 6 view .LVU792
 2579 0046 28B9     		cbnz	r0, .L106
 672:Middlewares/ST/BlueNRG-MS/hci/hci_le.c ****     return resp.status;
 673:Middlewares/ST/BlueNRG-MS/hci/hci_le.c ****   }
 674:Middlewares/ST/BlueNRG-MS/hci/hci_le.c ****   
 675:Middlewares/ST/BlueNRG-MS/hci/hci_le.c ****   *conn_handle = resp.handle;
 2580              		.loc 1 675 3 is_stmt 1 view .LVU793
 2581              		.loc 1 675 22 is_stmt 0 view .LVU794
 2582 0048 BDF80130 		ldrh	r3, [sp, #1]	@ unaligned
 2583              		.loc 1 675 16 view .LVU795
 2584 004c 2380     		strh	r3, [r4]	@ movhi
 676:Middlewares/ST/BlueNRG-MS/hci/hci_le.c ****   *rssi = resp.rssi;
 2585              		.loc 1 676 3 is_stmt 1 view .LVU796
 2586              		.loc 1 676 15 is_stmt 0 view .LVU797
 2587 004e 9DF90330 		ldrsb	r3, [sp, #3]
 2588              		.loc 1 676 9 view .LVU798
 2589 0052 2B70     		strb	r3, [r5]
 677:Middlewares/ST/BlueNRG-MS/hci/hci_le.c ****   
 678:Middlewares/ST/BlueNRG-MS/hci/hci_le.c ****   return 0;
 2590              		.loc 1 678 3 is_stmt 1 view .LVU799
 2591              	.L106:
 679:Middlewares/ST/BlueNRG-MS/hci/hci_le.c **** }
 2592              		.loc 1 679 1 is_stmt 0 view .LVU800
 2593 0054 09B0     		add	sp, sp, #36
 2594              	.LCFI98:
 2595              		.cfi_remember_state
ARM GAS  /tmp/cc11VlkJ.s 			page 58


 2596              		.cfi_def_cfa_offset 12
 2597              		@ sp needed
 2598 0056 30BD     		pop	{r4, r5, pc}
 2599              	.LVL106:
 2600              	.L109:
 2601              	.LCFI99:
 2602              		.cfi_restore_state
 668:Middlewares/ST/BlueNRG-MS/hci/hci_le.c ****   }
 2603              		.loc 1 668 12 view .LVU801
 2604 0058 FF20     		movs	r0, #255
 2605 005a FBE7     		b	.L106
 2606              		.cfi_endproc
 2607              	.LFE316:
 2609              		.section	.text.hci_le_read_local_supported_features,"ax",%progbits
 2610              		.align	1
 2611              		.global	hci_le_read_local_supported_features
 2612              		.syntax unified
 2613              		.thumb
 2614              		.thumb_func
 2616              	hci_le_read_local_supported_features:
 2617              	.LVL107:
 2618              	.LFB317:
 680:Middlewares/ST/BlueNRG-MS/hci/hci_le.c **** 
 681:Middlewares/ST/BlueNRG-MS/hci/hci_le.c **** int hci_le_read_local_supported_features(uint8_t *features)
 682:Middlewares/ST/BlueNRG-MS/hci/hci_le.c **** {
 2619              		.loc 1 682 1 is_stmt 1 view -0
 2620              		.cfi_startproc
 2621              		@ args = 0, pretend = 0, frame = 40
 2622              		@ frame_needed = 0, uses_anonymous_args = 0
 2623              		.loc 1 682 1 is_stmt 0 view .LVU803
 2624 0000 10B5     		push	{r4, lr}
 2625              	.LCFI100:
 2626              		.cfi_def_cfa_offset 8
 2627              		.cfi_offset 4, -8
 2628              		.cfi_offset 14, -4
 2629 0002 8AB0     		sub	sp, sp, #40
 2630              	.LCFI101:
 2631              		.cfi_def_cfa_offset 48
 2632 0004 0446     		mov	r4, r0
 683:Middlewares/ST/BlueNRG-MS/hci/hci_le.c ****   struct hci_request rq;
 2633              		.loc 1 683 3 is_stmt 1 view .LVU804
 684:Middlewares/ST/BlueNRG-MS/hci/hci_le.c ****   le_read_local_supported_features_rp resp;
 2634              		.loc 1 684 3 view .LVU805
 685:Middlewares/ST/BlueNRG-MS/hci/hci_le.c ****   
 686:Middlewares/ST/BlueNRG-MS/hci/hci_le.c ****   BLUENRG_memset(&resp, 0, sizeof(resp));
 2635              		.loc 1 686 3 view .LVU806
 2636 0006 01AB     		add	r3, sp, #4
 2637 0008 0021     		movs	r1, #0
 2638 000a 0191     		str	r1, [sp, #4]
 2639 000c 0291     		str	r1, [sp, #8]
 2640 000e 8DF80C10 		strb	r1, [sp, #12]
 687:Middlewares/ST/BlueNRG-MS/hci/hci_le.c ****   
 688:Middlewares/ST/BlueNRG-MS/hci/hci_le.c ****   BLUENRG_memset(&rq, 0, sizeof(rq));
 2641              		.loc 1 688 3 view .LVU807
 2642 0012 0491     		str	r1, [sp, #16]
 2643 0014 0591     		str	r1, [sp, #20]
 2644 0016 0691     		str	r1, [sp, #24]
ARM GAS  /tmp/cc11VlkJ.s 			page 59


 2645 0018 0791     		str	r1, [sp, #28]
 2646 001a 0891     		str	r1, [sp, #32]
 2647 001c 0991     		str	r1, [sp, #36]
 689:Middlewares/ST/BlueNRG-MS/hci/hci_le.c ****   rq.ogf = OGF_LE_CTL;
 2648              		.loc 1 689 3 view .LVU808
 2649              		.loc 1 689 10 is_stmt 0 view .LVU809
 2650 001e 0822     		movs	r2, #8
 2651 0020 ADF81020 		strh	r2, [sp, #16]	@ movhi
 690:Middlewares/ST/BlueNRG-MS/hci/hci_le.c ****   rq.ocf = OCF_LE_READ_LOCAL_SUPPORTED_FEATURES;
 2652              		.loc 1 690 3 is_stmt 1 view .LVU810
 2653              		.loc 1 690 10 is_stmt 0 view .LVU811
 2654 0024 0322     		movs	r2, #3
 2655 0026 ADF81220 		strh	r2, [sp, #18]	@ movhi
 691:Middlewares/ST/BlueNRG-MS/hci/hci_le.c ****   rq.rparam = &resp;
 2656              		.loc 1 691 3 is_stmt 1 view .LVU812
 2657              		.loc 1 691 13 is_stmt 0 view .LVU813
 2658 002a 0893     		str	r3, [sp, #32]
 692:Middlewares/ST/BlueNRG-MS/hci/hci_le.c ****   rq.rlen = LE_READ_LOCAL_SUPPORTED_FEATURES_RP_SIZE;
 2659              		.loc 1 692 3 is_stmt 1 view .LVU814
 2660              		.loc 1 692 11 is_stmt 0 view .LVU815
 2661 002c 0923     		movs	r3, #9
 2662 002e 0993     		str	r3, [sp, #36]
 693:Middlewares/ST/BlueNRG-MS/hci/hci_le.c ****   
 694:Middlewares/ST/BlueNRG-MS/hci/hci_le.c ****   if (hci_send_req(&rq, FALSE) < 0){
 2663              		.loc 1 694 3 is_stmt 1 view .LVU816
 2664              		.loc 1 694 7 is_stmt 0 view .LVU817
 2665 0030 04A8     		add	r0, sp, #16
 2666              	.LVL108:
 2667              		.loc 1 694 7 view .LVU818
 2668 0032 FFF7FEFF 		bl	hci_send_req
 2669              	.LVL109:
 2670              		.loc 1 694 6 view .LVU819
 2671 0036 0028     		cmp	r0, #0
 2672 0038 0ADB     		blt	.L114
 695:Middlewares/ST/BlueNRG-MS/hci/hci_le.c ****     return BLE_STATUS_TIMEOUT;
 696:Middlewares/ST/BlueNRG-MS/hci/hci_le.c ****   }
 697:Middlewares/ST/BlueNRG-MS/hci/hci_le.c ****   
 698:Middlewares/ST/BlueNRG-MS/hci/hci_le.c ****   if (resp.status) {
 2673              		.loc 1 698 3 is_stmt 1 view .LVU820
 2674              		.loc 1 698 11 is_stmt 0 view .LVU821
 2675 003a 9DF80400 		ldrb	r0, [sp, #4]	@ zero_extendqisi2
 2676              		.loc 1 698 6 view .LVU822
 2677 003e 28B9     		cbnz	r0, .L111
 699:Middlewares/ST/BlueNRG-MS/hci/hci_le.c ****     return resp.status;
 700:Middlewares/ST/BlueNRG-MS/hci/hci_le.c ****   }
 701:Middlewares/ST/BlueNRG-MS/hci/hci_le.c ****   
 702:Middlewares/ST/BlueNRG-MS/hci/hci_le.c ****   BLUENRG_memcpy(features, resp.features, sizeof(resp.features));
 2678              		.loc 1 702 3 is_stmt 1 view .LVU823
 2679 0040 DDF80520 		ldr	r2, [sp, #5]	@ unaligned
 2680 0044 DDF80930 		ldr	r3, [sp, #9]	@ unaligned
 2681 0048 2260     		str	r2, [r4]	@ unaligned
 2682 004a 6360     		str	r3, [r4, #4]	@ unaligned
 703:Middlewares/ST/BlueNRG-MS/hci/hci_le.c ****   
 704:Middlewares/ST/BlueNRG-MS/hci/hci_le.c ****   return 0;
 2683              		.loc 1 704 3 view .LVU824
 2684              	.L111:
 705:Middlewares/ST/BlueNRG-MS/hci/hci_le.c **** }
ARM GAS  /tmp/cc11VlkJ.s 			page 60


 2685              		.loc 1 705 1 is_stmt 0 view .LVU825
 2686 004c 0AB0     		add	sp, sp, #40
 2687              	.LCFI102:
 2688              		.cfi_remember_state
 2689              		.cfi_def_cfa_offset 8
 2690              		@ sp needed
 2691 004e 10BD     		pop	{r4, pc}
 2692              	.LVL110:
 2693              	.L114:
 2694              	.LCFI103:
 2695              		.cfi_restore_state
 695:Middlewares/ST/BlueNRG-MS/hci/hci_le.c ****   }
 2696              		.loc 1 695 12 view .LVU826
 2697 0050 FF20     		movs	r0, #255
 2698 0052 FBE7     		b	.L111
 2699              		.cfi_endproc
 2700              	.LFE317:
 2702              		.section	.text.hci_le_read_channel_map,"ax",%progbits
 2703              		.align	1
 2704              		.global	hci_le_read_channel_map
 2705              		.syntax unified
 2706              		.thumb
 2707              		.thumb_func
 2709              	hci_le_read_channel_map:
 2710              	.LVL111:
 2711              	.LFB318:
 706:Middlewares/ST/BlueNRG-MS/hci/hci_le.c **** 
 707:Middlewares/ST/BlueNRG-MS/hci/hci_le.c **** int hci_le_read_channel_map(uint16_t conn_handle, uint8_t ch_map[5])
 708:Middlewares/ST/BlueNRG-MS/hci/hci_le.c **** {
 2712              		.loc 1 708 1 is_stmt 1 view -0
 2713              		.cfi_startproc
 2714              		@ args = 0, pretend = 0, frame = 40
 2715              		@ frame_needed = 0, uses_anonymous_args = 0
 2716              		.loc 1 708 1 is_stmt 0 view .LVU828
 2717 0000 10B5     		push	{r4, lr}
 2718              	.LCFI104:
 2719              		.cfi_def_cfa_offset 8
 2720              		.cfi_offset 4, -8
 2721              		.cfi_offset 14, -4
 2722 0002 8AB0     		sub	sp, sp, #40
 2723              	.LCFI105:
 2724              		.cfi_def_cfa_offset 48
 2725 0004 0C46     		mov	r4, r1
 709:Middlewares/ST/BlueNRG-MS/hci/hci_le.c ****   struct hci_request rq;
 2726              		.loc 1 709 3 is_stmt 1 view .LVU829
 710:Middlewares/ST/BlueNRG-MS/hci/hci_le.c ****   le_read_channel_map_cp params;
 2727              		.loc 1 710 3 view .LVU830
 711:Middlewares/ST/BlueNRG-MS/hci/hci_le.c ****   le_read_channel_map_rp resp;
 2728              		.loc 1 711 3 view .LVU831
 712:Middlewares/ST/BlueNRG-MS/hci/hci_le.c ****   
 713:Middlewares/ST/BlueNRG-MS/hci/hci_le.c ****   BLUENRG_memset(&resp, 0, sizeof(resp));
 2729              		.loc 1 713 3 view .LVU832
 2730 0006 01AA     		add	r2, sp, #4
 2731 0008 0021     		movs	r1, #0
 2732              	.LVL112:
 2733              		.loc 1 713 3 is_stmt 0 view .LVU833
 2734 000a 0191     		str	r1, [sp, #4]
ARM GAS  /tmp/cc11VlkJ.s 			page 61


 2735 000c 0291     		str	r1, [sp, #8]
 714:Middlewares/ST/BlueNRG-MS/hci/hci_le.c ****   
 715:Middlewares/ST/BlueNRG-MS/hci/hci_le.c ****   params.handle = conn_handle;
 2736              		.loc 1 715 3 is_stmt 1 view .LVU834
 2737              		.loc 1 715 17 is_stmt 0 view .LVU835
 2738 000e ADF80C00 		strh	r0, [sp, #12]	@ movhi
 716:Middlewares/ST/BlueNRG-MS/hci/hci_le.c ****   
 717:Middlewares/ST/BlueNRG-MS/hci/hci_le.c ****   BLUENRG_memset(&rq, 0, sizeof(rq));
 2739              		.loc 1 717 3 is_stmt 1 view .LVU836
 2740 0012 0491     		str	r1, [sp, #16]
 2741 0014 0591     		str	r1, [sp, #20]
 2742 0016 0691     		str	r1, [sp, #24]
 2743 0018 0791     		str	r1, [sp, #28]
 2744 001a 0891     		str	r1, [sp, #32]
 2745 001c 0991     		str	r1, [sp, #36]
 718:Middlewares/ST/BlueNRG-MS/hci/hci_le.c ****   rq.ogf = OGF_LE_CTL;
 2746              		.loc 1 718 3 view .LVU837
 2747              		.loc 1 718 10 is_stmt 0 view .LVU838
 2748 001e 0823     		movs	r3, #8
 2749 0020 ADF81030 		strh	r3, [sp, #16]	@ movhi
 719:Middlewares/ST/BlueNRG-MS/hci/hci_le.c ****   rq.ocf = OCF_LE_READ_CHANNEL_MAP;
 2750              		.loc 1 719 3 is_stmt 1 view .LVU839
 2751              		.loc 1 719 10 is_stmt 0 view .LVU840
 2752 0024 1520     		movs	r0, #21
 2753              	.LVL113:
 2754              		.loc 1 719 10 view .LVU841
 2755 0026 ADF81200 		strh	r0, [sp, #18]	@ movhi
 720:Middlewares/ST/BlueNRG-MS/hci/hci_le.c ****   rq.cparam = &params;
 2756              		.loc 1 720 3 is_stmt 1 view .LVU842
 2757              		.loc 1 720 13 is_stmt 0 view .LVU843
 2758 002a 03A8     		add	r0, sp, #12
 2759              	.LVL114:
 2760              		.loc 1 720 13 view .LVU844
 2761 002c 0690     		str	r0, [sp, #24]
 721:Middlewares/ST/BlueNRG-MS/hci/hci_le.c ****   rq.clen = LE_READ_CHANNEL_MAP_CP_SIZE;
 2762              		.loc 1 721 3 is_stmt 1 view .LVU845
 2763              		.loc 1 721 11 is_stmt 0 view .LVU846
 2764 002e 0220     		movs	r0, #2
 2765              	.LVL115:
 2766              		.loc 1 721 11 view .LVU847
 2767 0030 0790     		str	r0, [sp, #28]
 722:Middlewares/ST/BlueNRG-MS/hci/hci_le.c ****   rq.rparam = &resp;
 2768              		.loc 1 722 3 is_stmt 1 view .LVU848
 2769              		.loc 1 722 13 is_stmt 0 view .LVU849
 2770 0032 0892     		str	r2, [sp, #32]
 723:Middlewares/ST/BlueNRG-MS/hci/hci_le.c ****   rq.rlen = LE_READ_CHANNEL_MAP_RP_SIZE;
 2771              		.loc 1 723 3 is_stmt 1 view .LVU850
 2772              		.loc 1 723 11 is_stmt 0 view .LVU851
 2773 0034 0993     		str	r3, [sp, #36]
 724:Middlewares/ST/BlueNRG-MS/hci/hci_le.c ****   
 725:Middlewares/ST/BlueNRG-MS/hci/hci_le.c ****   if (hci_send_req(&rq, FALSE) < 0){
 2774              		.loc 1 725 3 is_stmt 1 view .LVU852
 2775              		.loc 1 725 7 is_stmt 0 view .LVU853
 2776 0036 04A8     		add	r0, sp, #16
 2777 0038 FFF7FEFF 		bl	hci_send_req
 2778              	.LVL116:
 2779              		.loc 1 725 6 view .LVU854
ARM GAS  /tmp/cc11VlkJ.s 			page 62


 2780 003c 0028     		cmp	r0, #0
 2781 003e 0ADB     		blt	.L119
 726:Middlewares/ST/BlueNRG-MS/hci/hci_le.c ****     return BLE_STATUS_TIMEOUT;
 727:Middlewares/ST/BlueNRG-MS/hci/hci_le.c ****   }
 728:Middlewares/ST/BlueNRG-MS/hci/hci_le.c ****   
 729:Middlewares/ST/BlueNRG-MS/hci/hci_le.c ****   if (resp.status) {
 2782              		.loc 1 729 3 is_stmt 1 view .LVU855
 2783              		.loc 1 729 11 is_stmt 0 view .LVU856
 2784 0040 9DF80400 		ldrb	r0, [sp, #4]	@ zero_extendqisi2
 2785              		.loc 1 729 6 view .LVU857
 2786 0044 28B9     		cbnz	r0, .L116
 730:Middlewares/ST/BlueNRG-MS/hci/hci_le.c ****     return resp.status;
 731:Middlewares/ST/BlueNRG-MS/hci/hci_le.c ****   }
 732:Middlewares/ST/BlueNRG-MS/hci/hci_le.c ****   
 733:Middlewares/ST/BlueNRG-MS/hci/hci_le.c ****   BLUENRG_memcpy(ch_map, resp.map, 5);
 2787              		.loc 1 733 3 is_stmt 1 view .LVU858
 2788 0046 DDF80730 		ldr	r3, [sp, #7]	@ unaligned
 2789 004a 2360     		str	r3, [r4]	@ unaligned
 2790 004c 9DF80B30 		ldrb	r3, [sp, #11]	@ zero_extendqisi2
 2791 0050 2371     		strb	r3, [r4, #4]
 734:Middlewares/ST/BlueNRG-MS/hci/hci_le.c ****   
 735:Middlewares/ST/BlueNRG-MS/hci/hci_le.c ****   return 0;
 2792              		.loc 1 735 3 view .LVU859
 2793              	.L116:
 736:Middlewares/ST/BlueNRG-MS/hci/hci_le.c **** }
 2794              		.loc 1 736 1 is_stmt 0 view .LVU860
 2795 0052 0AB0     		add	sp, sp, #40
 2796              	.LCFI106:
 2797              		.cfi_remember_state
 2798              		.cfi_def_cfa_offset 8
 2799              		@ sp needed
 2800 0054 10BD     		pop	{r4, pc}
 2801              	.LVL117:
 2802              	.L119:
 2803              	.LCFI107:
 2804              		.cfi_restore_state
 726:Middlewares/ST/BlueNRG-MS/hci/hci_le.c ****   }
 2805              		.loc 1 726 12 view .LVU861
 2806 0056 FF20     		movs	r0, #255
 2807 0058 FBE7     		b	.L116
 2808              		.cfi_endproc
 2809              	.LFE318:
 2811              		.section	.text.hci_le_read_supported_states,"ax",%progbits
 2812              		.align	1
 2813              		.global	hci_le_read_supported_states
 2814              		.syntax unified
 2815              		.thumb
 2816              		.thumb_func
 2818              	hci_le_read_supported_states:
 2819              	.LVL118:
 2820              	.LFB319:
 737:Middlewares/ST/BlueNRG-MS/hci/hci_le.c **** 
 738:Middlewares/ST/BlueNRG-MS/hci/hci_le.c **** int hci_le_read_supported_states(uint8_t states[8])
 739:Middlewares/ST/BlueNRG-MS/hci/hci_le.c **** {
 2821              		.loc 1 739 1 is_stmt 1 view -0
 2822              		.cfi_startproc
 2823              		@ args = 0, pretend = 0, frame = 40
ARM GAS  /tmp/cc11VlkJ.s 			page 63


 2824              		@ frame_needed = 0, uses_anonymous_args = 0
 2825              		.loc 1 739 1 is_stmt 0 view .LVU863
 2826 0000 10B5     		push	{r4, lr}
 2827              	.LCFI108:
 2828              		.cfi_def_cfa_offset 8
 2829              		.cfi_offset 4, -8
 2830              		.cfi_offset 14, -4
 2831 0002 8AB0     		sub	sp, sp, #40
 2832              	.LCFI109:
 2833              		.cfi_def_cfa_offset 48
 2834 0004 0446     		mov	r4, r0
 740:Middlewares/ST/BlueNRG-MS/hci/hci_le.c ****   struct hci_request rq;
 2835              		.loc 1 740 3 is_stmt 1 view .LVU864
 741:Middlewares/ST/BlueNRG-MS/hci/hci_le.c ****   le_read_supported_states_rp resp;
 2836              		.loc 1 741 3 view .LVU865
 742:Middlewares/ST/BlueNRG-MS/hci/hci_le.c ****   
 743:Middlewares/ST/BlueNRG-MS/hci/hci_le.c ****   BLUENRG_memset(&resp, 0, sizeof(resp));
 2837              		.loc 1 743 3 view .LVU866
 2838 0006 01AB     		add	r3, sp, #4
 2839 0008 0021     		movs	r1, #0
 2840 000a 0191     		str	r1, [sp, #4]
 2841 000c 0291     		str	r1, [sp, #8]
 2842 000e 8DF80C10 		strb	r1, [sp, #12]
 744:Middlewares/ST/BlueNRG-MS/hci/hci_le.c ****   
 745:Middlewares/ST/BlueNRG-MS/hci/hci_le.c ****   BLUENRG_memset(&rq, 0, sizeof(rq));
 2843              		.loc 1 745 3 view .LVU867
 2844 0012 0491     		str	r1, [sp, #16]
 2845 0014 0591     		str	r1, [sp, #20]
 2846 0016 0691     		str	r1, [sp, #24]
 2847 0018 0791     		str	r1, [sp, #28]
 2848 001a 0891     		str	r1, [sp, #32]
 2849 001c 0991     		str	r1, [sp, #36]
 746:Middlewares/ST/BlueNRG-MS/hci/hci_le.c ****   rq.ogf = OGF_LE_CTL;
 2850              		.loc 1 746 3 view .LVU868
 2851              		.loc 1 746 10 is_stmt 0 view .LVU869
 2852 001e 0822     		movs	r2, #8
 2853 0020 ADF81020 		strh	r2, [sp, #16]	@ movhi
 747:Middlewares/ST/BlueNRG-MS/hci/hci_le.c ****   rq.ocf = OCF_LE_READ_SUPPORTED_STATES;
 2854              		.loc 1 747 3 is_stmt 1 view .LVU870
 2855              		.loc 1 747 10 is_stmt 0 view .LVU871
 2856 0024 1C22     		movs	r2, #28
 2857 0026 ADF81220 		strh	r2, [sp, #18]	@ movhi
 748:Middlewares/ST/BlueNRG-MS/hci/hci_le.c ****   rq.rparam = &resp;
 2858              		.loc 1 748 3 is_stmt 1 view .LVU872
 2859              		.loc 1 748 13 is_stmt 0 view .LVU873
 2860 002a 0893     		str	r3, [sp, #32]
 749:Middlewares/ST/BlueNRG-MS/hci/hci_le.c ****   rq.rlen = LE_READ_SUPPORTED_STATES_RP_SIZE;
 2861              		.loc 1 749 3 is_stmt 1 view .LVU874
 2862              		.loc 1 749 11 is_stmt 0 view .LVU875
 2863 002c 0923     		movs	r3, #9
 2864 002e 0993     		str	r3, [sp, #36]
 750:Middlewares/ST/BlueNRG-MS/hci/hci_le.c ****   
 751:Middlewares/ST/BlueNRG-MS/hci/hci_le.c ****   if (hci_send_req(&rq, FALSE) < 0){
 2865              		.loc 1 751 3 is_stmt 1 view .LVU876
 2866              		.loc 1 751 7 is_stmt 0 view .LVU877
 2867 0030 04A8     		add	r0, sp, #16
 2868              	.LVL119:
ARM GAS  /tmp/cc11VlkJ.s 			page 64


 2869              		.loc 1 751 7 view .LVU878
 2870 0032 FFF7FEFF 		bl	hci_send_req
 2871              	.LVL120:
 2872              		.loc 1 751 6 view .LVU879
 2873 0036 0028     		cmp	r0, #0
 2874 0038 0ADB     		blt	.L124
 752:Middlewares/ST/BlueNRG-MS/hci/hci_le.c ****     return BLE_STATUS_TIMEOUT;
 753:Middlewares/ST/BlueNRG-MS/hci/hci_le.c ****   }
 754:Middlewares/ST/BlueNRG-MS/hci/hci_le.c ****   
 755:Middlewares/ST/BlueNRG-MS/hci/hci_le.c ****   if (resp.status) {
 2875              		.loc 1 755 3 is_stmt 1 view .LVU880
 2876              		.loc 1 755 11 is_stmt 0 view .LVU881
 2877 003a 9DF80400 		ldrb	r0, [sp, #4]	@ zero_extendqisi2
 2878              		.loc 1 755 6 view .LVU882
 2879 003e 28B9     		cbnz	r0, .L121
 756:Middlewares/ST/BlueNRG-MS/hci/hci_le.c ****     return resp.status;
 757:Middlewares/ST/BlueNRG-MS/hci/hci_le.c ****   }
 758:Middlewares/ST/BlueNRG-MS/hci/hci_le.c ****   
 759:Middlewares/ST/BlueNRG-MS/hci/hci_le.c ****   BLUENRG_memcpy(states, resp.states, 8);
 2880              		.loc 1 759 3 is_stmt 1 view .LVU883
 2881 0040 DDF80520 		ldr	r2, [sp, #5]	@ unaligned
 2882 0044 DDF80930 		ldr	r3, [sp, #9]	@ unaligned
 2883 0048 2260     		str	r2, [r4]	@ unaligned
 2884 004a 6360     		str	r3, [r4, #4]	@ unaligned
 760:Middlewares/ST/BlueNRG-MS/hci/hci_le.c ****   
 761:Middlewares/ST/BlueNRG-MS/hci/hci_le.c ****   return 0;
 2885              		.loc 1 761 3 view .LVU884
 2886              	.L121:
 762:Middlewares/ST/BlueNRG-MS/hci/hci_le.c **** }
 2887              		.loc 1 762 1 is_stmt 0 view .LVU885
 2888 004c 0AB0     		add	sp, sp, #40
 2889              	.LCFI110:
 2890              		.cfi_remember_state
 2891              		.cfi_def_cfa_offset 8
 2892              		@ sp needed
 2893 004e 10BD     		pop	{r4, pc}
 2894              	.LVL121:
 2895              	.L124:
 2896              	.LCFI111:
 2897              		.cfi_restore_state
 752:Middlewares/ST/BlueNRG-MS/hci/hci_le.c ****   }
 2898              		.loc 1 752 12 view .LVU886
 2899 0050 FF20     		movs	r0, #255
 2900 0052 FBE7     		b	.L121
 2901              		.cfi_endproc
 2902              	.LFE319:
 2904              		.section	.text.hci_le_receiver_test,"ax",%progbits
 2905              		.align	1
 2906              		.global	hci_le_receiver_test
 2907              		.syntax unified
 2908              		.thumb
 2909              		.thumb_func
 2911              	hci_le_receiver_test:
 2912              	.LVL122:
 2913              	.LFB320:
 763:Middlewares/ST/BlueNRG-MS/hci/hci_le.c **** 
 764:Middlewares/ST/BlueNRG-MS/hci/hci_le.c **** int hci_le_receiver_test(uint8_t frequency)
ARM GAS  /tmp/cc11VlkJ.s 			page 65


 765:Middlewares/ST/BlueNRG-MS/hci/hci_le.c **** {
 2914              		.loc 1 765 1 is_stmt 1 view -0
 2915              		.cfi_startproc
 2916              		@ args = 0, pretend = 0, frame = 32
 2917              		@ frame_needed = 0, uses_anonymous_args = 0
 2918              		.loc 1 765 1 is_stmt 0 view .LVU888
 2919 0000 00B5     		push	{lr}
 2920              	.LCFI112:
 2921              		.cfi_def_cfa_offset 4
 2922              		.cfi_offset 14, -4
 2923 0002 89B0     		sub	sp, sp, #36
 2924              	.LCFI113:
 2925              		.cfi_def_cfa_offset 40
 766:Middlewares/ST/BlueNRG-MS/hci/hci_le.c ****   struct hci_request rq;
 2926              		.loc 1 766 3 is_stmt 1 view .LVU889
 767:Middlewares/ST/BlueNRG-MS/hci/hci_le.c ****   le_receiver_test_cp params;
 2927              		.loc 1 767 3 view .LVU890
 768:Middlewares/ST/BlueNRG-MS/hci/hci_le.c ****   uint8_t status;
 2928              		.loc 1 768 3 view .LVU891
 769:Middlewares/ST/BlueNRG-MS/hci/hci_le.c ****   
 770:Middlewares/ST/BlueNRG-MS/hci/hci_le.c ****   params.frequency = frequency;
 2929              		.loc 1 770 3 view .LVU892
 2930              		.loc 1 770 20 is_stmt 0 view .LVU893
 2931 0004 8DF80400 		strb	r0, [sp, #4]
 771:Middlewares/ST/BlueNRG-MS/hci/hci_le.c ****   
 772:Middlewares/ST/BlueNRG-MS/hci/hci_le.c ****   BLUENRG_memset(&rq, 0, sizeof(rq));
 2932              		.loc 1 772 3 is_stmt 1 view .LVU894
 2933 0008 0021     		movs	r1, #0
 2934 000a 0291     		str	r1, [sp, #8]
 2935 000c 0391     		str	r1, [sp, #12]
 2936 000e 0491     		str	r1, [sp, #16]
 2937 0010 0591     		str	r1, [sp, #20]
 2938 0012 0691     		str	r1, [sp, #24]
 2939 0014 0791     		str	r1, [sp, #28]
 773:Middlewares/ST/BlueNRG-MS/hci/hci_le.c ****   rq.ogf = OGF_LE_CTL;
 2940              		.loc 1 773 3 view .LVU895
 2941              		.loc 1 773 10 is_stmt 0 view .LVU896
 2942 0016 0823     		movs	r3, #8
 2943 0018 ADF80830 		strh	r3, [sp, #8]	@ movhi
 774:Middlewares/ST/BlueNRG-MS/hci/hci_le.c ****   rq.ocf = OCF_LE_RECEIVER_TEST;
 2944              		.loc 1 774 3 is_stmt 1 view .LVU897
 2945              		.loc 1 774 10 is_stmt 0 view .LVU898
 2946 001c 1D23     		movs	r3, #29
 2947 001e ADF80A30 		strh	r3, [sp, #10]	@ movhi
 775:Middlewares/ST/BlueNRG-MS/hci/hci_le.c ****   rq.cparam = &params;
 2948              		.loc 1 775 3 is_stmt 1 view .LVU899
 2949              		.loc 1 775 13 is_stmt 0 view .LVU900
 2950 0022 01AB     		add	r3, sp, #4
 2951 0024 0493     		str	r3, [sp, #16]
 776:Middlewares/ST/BlueNRG-MS/hci/hci_le.c ****   rq.clen = LE_RECEIVER_TEST_CP_SIZE;
 2952              		.loc 1 776 3 is_stmt 1 view .LVU901
 2953              		.loc 1 776 11 is_stmt 0 view .LVU902
 2954 0026 0123     		movs	r3, #1
 2955 0028 0593     		str	r3, [sp, #20]
 777:Middlewares/ST/BlueNRG-MS/hci/hci_le.c ****   rq.rparam = &status;
 2956              		.loc 1 777 3 is_stmt 1 view .LVU903
 2957              		.loc 1 777 13 is_stmt 0 view .LVU904
ARM GAS  /tmp/cc11VlkJ.s 			page 66


 2958 002a 0DF10302 		add	r2, sp, #3
 2959 002e 0692     		str	r2, [sp, #24]
 778:Middlewares/ST/BlueNRG-MS/hci/hci_le.c ****   rq.rlen = 1;
 2960              		.loc 1 778 3 is_stmt 1 view .LVU905
 2961              		.loc 1 778 11 is_stmt 0 view .LVU906
 2962 0030 0793     		str	r3, [sp, #28]
 779:Middlewares/ST/BlueNRG-MS/hci/hci_le.c ****   
 780:Middlewares/ST/BlueNRG-MS/hci/hci_le.c ****   if (hci_send_req(&rq, FALSE) < 0){
 2963              		.loc 1 780 3 is_stmt 1 view .LVU907
 2964              		.loc 1 780 7 is_stmt 0 view .LVU908
 2965 0032 02A8     		add	r0, sp, #8
 2966              	.LVL123:
 2967              		.loc 1 780 7 view .LVU909
 2968 0034 FFF7FEFF 		bl	hci_send_req
 2969              	.LVL124:
 2970              		.loc 1 780 6 view .LVU910
 2971 0038 0028     		cmp	r0, #0
 2972 003a 04DB     		blt	.L128
 781:Middlewares/ST/BlueNRG-MS/hci/hci_le.c ****     return BLE_STATUS_TIMEOUT;
 782:Middlewares/ST/BlueNRG-MS/hci/hci_le.c ****   }
 783:Middlewares/ST/BlueNRG-MS/hci/hci_le.c ****   
 784:Middlewares/ST/BlueNRG-MS/hci/hci_le.c ****   return status;
 2973              		.loc 1 784 3 is_stmt 1 view .LVU911
 2974              		.loc 1 784 10 is_stmt 0 view .LVU912
 2975 003c 9DF80300 		ldrb	r0, [sp, #3]	@ zero_extendqisi2
 2976              	.L126:
 785:Middlewares/ST/BlueNRG-MS/hci/hci_le.c **** }
 2977              		.loc 1 785 1 view .LVU913
 2978 0040 09B0     		add	sp, sp, #36
 2979              	.LCFI114:
 2980              		.cfi_remember_state
 2981              		.cfi_def_cfa_offset 4
 2982              		@ sp needed
 2983 0042 5DF804FB 		ldr	pc, [sp], #4
 2984              	.L128:
 2985              	.LCFI115:
 2986              		.cfi_restore_state
 781:Middlewares/ST/BlueNRG-MS/hci/hci_le.c ****     return BLE_STATUS_TIMEOUT;
 2987              		.loc 1 781 12 view .LVU914
 2988 0046 FF20     		movs	r0, #255
 2989 0048 FAE7     		b	.L126
 2990              		.cfi_endproc
 2991              	.LFE320:
 2993              		.section	.text.hci_le_transmitter_test,"ax",%progbits
 2994              		.align	1
 2995              		.global	hci_le_transmitter_test
 2996              		.syntax unified
 2997              		.thumb
 2998              		.thumb_func
 3000              	hci_le_transmitter_test:
 3001              	.LVL125:
 3002              	.LFB321:
 786:Middlewares/ST/BlueNRG-MS/hci/hci_le.c **** 
 787:Middlewares/ST/BlueNRG-MS/hci/hci_le.c **** int hci_le_transmitter_test(uint8_t frequency, uint8_t length, uint8_t payload)
 788:Middlewares/ST/BlueNRG-MS/hci/hci_le.c **** {
 3003              		.loc 1 788 1 is_stmt 1 view -0
 3004              		.cfi_startproc
ARM GAS  /tmp/cc11VlkJ.s 			page 67


 3005              		@ args = 0, pretend = 0, frame = 32
 3006              		@ frame_needed = 0, uses_anonymous_args = 0
 3007              		.loc 1 788 1 is_stmt 0 view .LVU916
 3008 0000 00B5     		push	{lr}
 3009              	.LCFI116:
 3010              		.cfi_def_cfa_offset 4
 3011              		.cfi_offset 14, -4
 3012 0002 89B0     		sub	sp, sp, #36
 3013              	.LCFI117:
 3014              		.cfi_def_cfa_offset 40
 789:Middlewares/ST/BlueNRG-MS/hci/hci_le.c ****   struct hci_request rq;
 3015              		.loc 1 789 3 is_stmt 1 view .LVU917
 790:Middlewares/ST/BlueNRG-MS/hci/hci_le.c ****   le_transmitter_test_cp params;
 3016              		.loc 1 790 3 view .LVU918
 791:Middlewares/ST/BlueNRG-MS/hci/hci_le.c ****   uint8_t status;
 3017              		.loc 1 791 3 view .LVU919
 792:Middlewares/ST/BlueNRG-MS/hci/hci_le.c ****   
 793:Middlewares/ST/BlueNRG-MS/hci/hci_le.c ****   params.frequency = frequency;
 3018              		.loc 1 793 3 view .LVU920
 3019              		.loc 1 793 20 is_stmt 0 view .LVU921
 3020 0004 8DF80400 		strb	r0, [sp, #4]
 794:Middlewares/ST/BlueNRG-MS/hci/hci_le.c ****   params.length = length;
 3021              		.loc 1 794 3 is_stmt 1 view .LVU922
 3022              		.loc 1 794 17 is_stmt 0 view .LVU923
 3023 0008 8DF80510 		strb	r1, [sp, #5]
 795:Middlewares/ST/BlueNRG-MS/hci/hci_le.c ****   params.payload = payload;
 3024              		.loc 1 795 3 is_stmt 1 view .LVU924
 3025              		.loc 1 795 18 is_stmt 0 view .LVU925
 3026 000c 8DF80620 		strb	r2, [sp, #6]
 796:Middlewares/ST/BlueNRG-MS/hci/hci_le.c ****   
 797:Middlewares/ST/BlueNRG-MS/hci/hci_le.c ****   BLUENRG_memset(&rq, 0, sizeof(rq));
 3027              		.loc 1 797 3 is_stmt 1 view .LVU926
 3028 0010 0021     		movs	r1, #0
 3029              	.LVL126:
 3030              		.loc 1 797 3 is_stmt 0 view .LVU927
 3031 0012 0291     		str	r1, [sp, #8]
 3032 0014 0391     		str	r1, [sp, #12]
 3033 0016 0491     		str	r1, [sp, #16]
 3034 0018 0591     		str	r1, [sp, #20]
 3035 001a 0691     		str	r1, [sp, #24]
 3036 001c 0791     		str	r1, [sp, #28]
 798:Middlewares/ST/BlueNRG-MS/hci/hci_le.c ****   rq.ogf = OGF_LE_CTL;
 3037              		.loc 1 798 3 is_stmt 1 view .LVU928
 3038              		.loc 1 798 10 is_stmt 0 view .LVU929
 3039 001e 0823     		movs	r3, #8
 3040 0020 ADF80830 		strh	r3, [sp, #8]	@ movhi
 799:Middlewares/ST/BlueNRG-MS/hci/hci_le.c ****   rq.ocf = OCF_LE_TRANSMITTER_TEST;
 3041              		.loc 1 799 3 is_stmt 1 view .LVU930
 3042              		.loc 1 799 10 is_stmt 0 view .LVU931
 3043 0024 1E23     		movs	r3, #30
 3044 0026 ADF80A30 		strh	r3, [sp, #10]	@ movhi
 800:Middlewares/ST/BlueNRG-MS/hci/hci_le.c ****   rq.cparam = &params;
 3045              		.loc 1 800 3 is_stmt 1 view .LVU932
 3046              		.loc 1 800 13 is_stmt 0 view .LVU933
 3047 002a 01AB     		add	r3, sp, #4
 3048 002c 0493     		str	r3, [sp, #16]
 801:Middlewares/ST/BlueNRG-MS/hci/hci_le.c ****   rq.clen = LE_TRANSMITTER_TEST_CP_SIZE;
ARM GAS  /tmp/cc11VlkJ.s 			page 68


 3049              		.loc 1 801 3 is_stmt 1 view .LVU934
 3050              		.loc 1 801 11 is_stmt 0 view .LVU935
 3051 002e 0323     		movs	r3, #3
 3052 0030 0593     		str	r3, [sp, #20]
 802:Middlewares/ST/BlueNRG-MS/hci/hci_le.c ****   rq.rparam = &status;
 3053              		.loc 1 802 3 is_stmt 1 view .LVU936
 3054              		.loc 1 802 13 is_stmt 0 view .LVU937
 3055 0032 6B44     		add	r3, sp, r3
 3056 0034 0693     		str	r3, [sp, #24]
 803:Middlewares/ST/BlueNRG-MS/hci/hci_le.c ****   rq.rlen = 1;
 3057              		.loc 1 803 3 is_stmt 1 view .LVU938
 3058              		.loc 1 803 11 is_stmt 0 view .LVU939
 3059 0036 0123     		movs	r3, #1
 3060 0038 0793     		str	r3, [sp, #28]
 804:Middlewares/ST/BlueNRG-MS/hci/hci_le.c ****   
 805:Middlewares/ST/BlueNRG-MS/hci/hci_le.c ****   if (hci_send_req(&rq, FALSE) < 0){
 3061              		.loc 1 805 3 is_stmt 1 view .LVU940
 3062              		.loc 1 805 7 is_stmt 0 view .LVU941
 3063 003a 02A8     		add	r0, sp, #8
 3064              	.LVL127:
 3065              		.loc 1 805 7 view .LVU942
 3066 003c FFF7FEFF 		bl	hci_send_req
 3067              	.LVL128:
 3068              		.loc 1 805 6 view .LVU943
 3069 0040 0028     		cmp	r0, #0
 3070 0042 04DB     		blt	.L132
 806:Middlewares/ST/BlueNRG-MS/hci/hci_le.c ****     return BLE_STATUS_TIMEOUT;
 807:Middlewares/ST/BlueNRG-MS/hci/hci_le.c ****   }
 808:Middlewares/ST/BlueNRG-MS/hci/hci_le.c ****   
 809:Middlewares/ST/BlueNRG-MS/hci/hci_le.c ****   return status;
 3071              		.loc 1 809 3 is_stmt 1 view .LVU944
 3072              		.loc 1 809 10 is_stmt 0 view .LVU945
 3073 0044 9DF80300 		ldrb	r0, [sp, #3]	@ zero_extendqisi2
 3074              	.L130:
 810:Middlewares/ST/BlueNRG-MS/hci/hci_le.c **** }
 3075              		.loc 1 810 1 view .LVU946
 3076 0048 09B0     		add	sp, sp, #36
 3077              	.LCFI118:
 3078              		.cfi_remember_state
 3079              		.cfi_def_cfa_offset 4
 3080              		@ sp needed
 3081 004a 5DF804FB 		ldr	pc, [sp], #4
 3082              	.L132:
 3083              	.LCFI119:
 3084              		.cfi_restore_state
 806:Middlewares/ST/BlueNRG-MS/hci/hci_le.c ****     return BLE_STATUS_TIMEOUT;
 3085              		.loc 1 806 12 view .LVU947
 3086 004e FF20     		movs	r0, #255
 3087 0050 FAE7     		b	.L130
 3088              		.cfi_endproc
 3089              	.LFE321:
 3091              		.section	.text.hci_le_test_end,"ax",%progbits
 3092              		.align	1
 3093              		.global	hci_le_test_end
 3094              		.syntax unified
 3095              		.thumb
 3096              		.thumb_func
ARM GAS  /tmp/cc11VlkJ.s 			page 69


 3098              	hci_le_test_end:
 3099              	.LVL129:
 3100              	.LFB322:
 811:Middlewares/ST/BlueNRG-MS/hci/hci_le.c **** 
 812:Middlewares/ST/BlueNRG-MS/hci/hci_le.c **** int hci_le_test_end(uint16_t *num_pkts)
 813:Middlewares/ST/BlueNRG-MS/hci/hci_le.c **** {
 3101              		.loc 1 813 1 is_stmt 1 view -0
 3102              		.cfi_startproc
 3103              		@ args = 0, pretend = 0, frame = 32
 3104              		@ frame_needed = 0, uses_anonymous_args = 0
 3105              		.loc 1 813 1 is_stmt 0 view .LVU949
 3106 0000 10B5     		push	{r4, lr}
 3107              	.LCFI120:
 3108              		.cfi_def_cfa_offset 8
 3109              		.cfi_offset 4, -8
 3110              		.cfi_offset 14, -4
 3111 0002 88B0     		sub	sp, sp, #32
 3112              	.LCFI121:
 3113              		.cfi_def_cfa_offset 40
 3114 0004 0446     		mov	r4, r0
 814:Middlewares/ST/BlueNRG-MS/hci/hci_le.c ****   struct hci_request rq;
 3115              		.loc 1 814 3 is_stmt 1 view .LVU950
 815:Middlewares/ST/BlueNRG-MS/hci/hci_le.c ****   le_test_end_rp resp;
 3116              		.loc 1 815 3 view .LVU951
 816:Middlewares/ST/BlueNRG-MS/hci/hci_le.c ****   
 817:Middlewares/ST/BlueNRG-MS/hci/hci_le.c ****   BLUENRG_memset(&resp, 0, sizeof(resp));
 3117              		.loc 1 817 3 view .LVU952
 3118 0006 01AB     		add	r3, sp, #4
 3119 0008 0021     		movs	r1, #0
 3120 000a ADF80410 		strh	r1, [sp, #4]	@ movhi
 3121 000e 8DF80610 		strb	r1, [sp, #6]
 818:Middlewares/ST/BlueNRG-MS/hci/hci_le.c ****   
 819:Middlewares/ST/BlueNRG-MS/hci/hci_le.c ****   BLUENRG_memset(&rq, 0, sizeof(rq));
 3122              		.loc 1 819 3 view .LVU953
 3123 0012 0291     		str	r1, [sp, #8]
 3124 0014 0391     		str	r1, [sp, #12]
 3125 0016 0491     		str	r1, [sp, #16]
 3126 0018 0591     		str	r1, [sp, #20]
 3127 001a 0691     		str	r1, [sp, #24]
 3128 001c 0791     		str	r1, [sp, #28]
 820:Middlewares/ST/BlueNRG-MS/hci/hci_le.c ****   rq.ogf = OGF_LE_CTL;
 3129              		.loc 1 820 3 view .LVU954
 3130              		.loc 1 820 10 is_stmt 0 view .LVU955
 3131 001e 0822     		movs	r2, #8
 3132 0020 ADF80820 		strh	r2, [sp, #8]	@ movhi
 821:Middlewares/ST/BlueNRG-MS/hci/hci_le.c ****   rq.ocf = OCF_LE_TEST_END;
 3133              		.loc 1 821 3 is_stmt 1 view .LVU956
 3134              		.loc 1 821 10 is_stmt 0 view .LVU957
 3135 0024 1F22     		movs	r2, #31
 3136 0026 ADF80A20 		strh	r2, [sp, #10]	@ movhi
 822:Middlewares/ST/BlueNRG-MS/hci/hci_le.c ****   rq.rparam = &resp;
 3137              		.loc 1 822 3 is_stmt 1 view .LVU958
 3138              		.loc 1 822 13 is_stmt 0 view .LVU959
 3139 002a 0693     		str	r3, [sp, #24]
 823:Middlewares/ST/BlueNRG-MS/hci/hci_le.c ****   rq.rlen = LE_TEST_END_RP_SIZE;
 3140              		.loc 1 823 3 is_stmt 1 view .LVU960
 3141              		.loc 1 823 11 is_stmt 0 view .LVU961
ARM GAS  /tmp/cc11VlkJ.s 			page 70


 3142 002c 0323     		movs	r3, #3
 3143 002e 0793     		str	r3, [sp, #28]
 824:Middlewares/ST/BlueNRG-MS/hci/hci_le.c ****   
 825:Middlewares/ST/BlueNRG-MS/hci/hci_le.c ****   if (hci_send_req(&rq, FALSE) < 0){
 3144              		.loc 1 825 3 is_stmt 1 view .LVU962
 3145              		.loc 1 825 7 is_stmt 0 view .LVU963
 3146 0030 02A8     		add	r0, sp, #8
 3147              	.LVL130:
 3148              		.loc 1 825 7 view .LVU964
 3149 0032 FFF7FEFF 		bl	hci_send_req
 3150              	.LVL131:
 3151              		.loc 1 825 6 view .LVU965
 3152 0036 0028     		cmp	r0, #0
 3153 0038 07DB     		blt	.L137
 826:Middlewares/ST/BlueNRG-MS/hci/hci_le.c ****     return BLE_STATUS_TIMEOUT;
 827:Middlewares/ST/BlueNRG-MS/hci/hci_le.c ****   }
 828:Middlewares/ST/BlueNRG-MS/hci/hci_le.c ****   
 829:Middlewares/ST/BlueNRG-MS/hci/hci_le.c ****   if (resp.status) {
 3154              		.loc 1 829 3 is_stmt 1 view .LVU966
 3155              		.loc 1 829 11 is_stmt 0 view .LVU967
 3156 003a 9DF80400 		ldrb	r0, [sp, #4]	@ zero_extendqisi2
 3157              		.loc 1 829 6 view .LVU968
 3158 003e 10B9     		cbnz	r0, .L134
 830:Middlewares/ST/BlueNRG-MS/hci/hci_le.c ****     return resp.status;
 831:Middlewares/ST/BlueNRG-MS/hci/hci_le.c ****   }
 832:Middlewares/ST/BlueNRG-MS/hci/hci_le.c ****   
 833:Middlewares/ST/BlueNRG-MS/hci/hci_le.c ****   *num_pkts = resp.num_pkts;
 3159              		.loc 1 833 3 is_stmt 1 view .LVU969
 3160              		.loc 1 833 19 is_stmt 0 view .LVU970
 3161 0040 BDF80530 		ldrh	r3, [sp, #5]	@ unaligned
 3162              		.loc 1 833 13 view .LVU971
 3163 0044 2380     		strh	r3, [r4]	@ movhi
 834:Middlewares/ST/BlueNRG-MS/hci/hci_le.c ****   
 835:Middlewares/ST/BlueNRG-MS/hci/hci_le.c ****   return 0;
 3164              		.loc 1 835 3 is_stmt 1 view .LVU972
 3165              	.L134:
 836:Middlewares/ST/BlueNRG-MS/hci/hci_le.c **** }
 3166              		.loc 1 836 1 is_stmt 0 view .LVU973
 3167 0046 08B0     		add	sp, sp, #32
 3168              	.LCFI122:
 3169              		.cfi_remember_state
 3170              		.cfi_def_cfa_offset 8
 3171              		@ sp needed
 3172 0048 10BD     		pop	{r4, pc}
 3173              	.LVL132:
 3174              	.L137:
 3175              	.LCFI123:
 3176              		.cfi_restore_state
 826:Middlewares/ST/BlueNRG-MS/hci/hci_le.c ****   }
 3177              		.loc 1 826 12 view .LVU974
 3178 004a FF20     		movs	r0, #255
 3179 004c FBE7     		b	.L134
 3180              		.cfi_endproc
 3181              	.LFE322:
 3183              		.text
 3184              	.Letext0:
 3185              		.file 2 "/usr/arm-none-eabi/include/machine/_default_types.h"
ARM GAS  /tmp/cc11VlkJ.s 			page 71


 3186              		.file 3 "/usr/arm-none-eabi/include/sys/_stdint.h"
 3187              		.file 4 "Middlewares/ST/BlueNRG-MS/includes/bluenrg_types.h"
 3188              		.file 5 "Middlewares/ST/BlueNRG-MS/includes/link_layer.h"
 3189              		.file 6 "/usr/lib/gcc/arm-none-eabi/12.1.0/include/stddef.h"
 3190              		.file 7 "Middlewares/ST/BlueNRG-MS/hci/hci_tl_patterns/Basic/hci_tl.h"
 3191              		.file 8 "Middlewares/ST/BlueNRG-MS/includes/hci_const.h"
 3192              		.file 9 "/usr/arm-none-eabi/include/string.h"
 3193              		.file 10 "<built-in>"
ARM GAS  /tmp/cc11VlkJ.s 			page 72

